(dp1
S'corroboreefrog915'
p2
(lp3
(dp4
S'difficult'
p5
I0
sS'pose'
p6
S'Unspecified'
p7
sS'name'
p8
S'Corroboree Frog'
p9
sS'bbox'
p10
(lp11
I41
aI31
aI200
aI195
asS'truncated'
p12
I0
sasS'greetreefrog798'
p13
(lp14
(dp15
g5
I0
sg6
S'Unspecified'
p16
sg8
S'Green Tree Frog'
p17
sg10
(lp18
I87
aI34
aI186
aI173
asg12
I0
sasS'corroboreefrog1862'
p19
(lp20
(dp21
g5
I0
sg6
S'Unspecified'
p22
sg8
S'Corroboree Frog'
p23
sg10
(lp24
I18
aI48
aI200
aI179
asg12
I0
sasS'GGBF940'
p25
(lp26
(dp27
g5
I0
sg6
S'Unspecified'
p28
sg8
S'Green And Golden Bell Frog'
p29
sg10
(lp30
I3
aI15
aI138
aI185
asg12
I0
sasS'greetreefrog1524'
p31
(lp32
(dp33
g5
I0
sg6
S'Unspecified'
p34
sg8
S'Green Tree Frog'
p35
sg10
(lp36
I2
aI4
aI215
aI213
asg12
I0
sasS'GBF193'
p37
(lp38
(dp39
g5
I0
sg6
S'Unspecified'
p40
sg8
S'Great Barred Frog'
p41
sg10
(lp42
I1
aI22
aI172
aI212
asg12
I1
sasS'GBF192'
p43
(lp44
(dp45
g5
I0
sg6
S'Unspecified'
p46
sg8
S'Great Barred Frog'
p47
sg10
(lp48
I7
aI2
aI224
aI178
asg12
I1
sasS'greetreefrog820'
p49
(lp50
(dp51
g5
I0
sg6
S'Unspecified'
p52
sg8
S'Green Tree Frog'
p53
sg10
(lp54
I38
aI5
aI202
aI211
asg12
I0
sasS'RedEyed955'
p55
(lp56
(dp57
g5
I0
sg6
S'Unspecified'
p58
sg8
S'Red Eyed Tree Frog'
p59
sg10
(lp60
I34
aI28
aI194
aI186
asg12
I0
sasS'greetreefrog797'
p61
(lp62
(dp63
g5
I0
sg6
S'Unspecified'
p64
sg8
S'Green Tree Frog'
p65
sg10
(lp66
I53
aI85
aI199
aI212
asg12
I0
sasS'GoldenPoisonDartFrog999'
p67
(lp68
(dp69
g5
I0
sg6
S'Unspecified'
p70
sg8
S'Golden Poison Dart Frog'
p71
sg10
(lp72
I71
aI55
aI148
aI172
asg12
I0
sasS'RedEyed172'
p73
(lp74
(dp75
g5
I0
sg6
S'Unspecified'
p76
sg8
S'Red Eyed Tree Frog'
p77
sg10
(lp78
I115
aI74
aI224
aI182
asg12
I1
sasS'corroboreefrog1367'
p79
(lp80
(dp81
g5
I0
sg6
S'Unspecified'
p82
sg8
S'Corroboree Frog'
p83
sg10
(lp84
I80
aI16
aI210
aI187
asg12
I0
sasS'RedEyed177'
p85
(lp86
(dp87
g5
I0
sg6
S'Unspecified'
p88
sg8
S'Red Eyed Tree Frog'
p89
sg10
(lp90
I24
aI26
aI188
aI213
asg12
I0
sasS'GBF230'
p91
(lp92
(dp93
g5
I0
sg6
S'Unspecified'
p94
sg8
S'Great Barred Frog'
p95
sg10
(lp96
I1
aI1
aI223
aI224
asg12
I1
sasS'CaneToad1,450'
p97
(lp98
(dp99
g5
I0
sg6
S'Unspecified'
p100
sg8
S'CaneToad'
p101
sg10
(lp102
I23
aI1
aI162
aI217
asg12
I1
sasS'VietnameseMossy262'
p103
(lp104
(dp105
g5
I0
sg6
S'Unspecified'
p106
sg8
S'Vietnamese Mossy Forg'
p107
sg10
(lp108
I34
aI4
aI221
aI223
asg12
I0
sasS'VietnameseMossy169'
p109
(lp110
(dp111
g5
I0
sg6
S'Unspecified'
p112
sg8
S'Vietnamese Mossy Forg'
p113
sg10
(lp114
I69
aI71
aI199
aI194
asg12
I0
sasS'corroboreefrog913'
p115
(lp116
(dp117
g5
I0
sg6
S'Unspecified'
p118
sg8
S'Corroboree Frog'
p119
sg10
(lp120
I29
aI36
aI200
aI197
asg12
I0
sasS'BluePoisonDartFrog1293'
p121
(lp122
(dp123
g5
I0
sg6
S'Unspecified'
p124
sg8
S'Blue Poison Dart Frog'
p125
sg10
(lp126
I23
aI46
aI164
aI206
asg12
I0
sasS'GBF299'
p127
(lp128
(dp129
g5
I0
sg6
S'Unspecified'
p130
sg8
S'Great Barred Frog'
p131
sg10
(lp132
I35
aI7
aI188
aI205
asg12
I0
sasS'greetreefrog316'
p133
(lp134
(dp135
g5
I0
sg6
S'Unspecified'
p136
sg8
S'Green Tree Frog'
p137
sg10
(lp138
I45
aI12
aI224
aI219
asg12
I1
sasS'greetreefrog79'
p139
(lp140
(dp141
g5
I0
sg6
S'Unspecified'
p142
sg8
S'Green Tree Frog'
p143
sg10
(lp144
I38
aI51
aI139
aI198
asg12
I0
sasS'greetreefrog314'
p145
(lp146
(dp147
g5
I0
sg6
S'Unspecified'
p148
sg8
S'Green Tree Frog'
p149
sg10
(lp150
I2
aI20
aI218
aI214
asg12
I0
sasS'corroboreefrog1022'
p151
(lp152
(dp153
g5
I0
sg6
S'Unspecified'
p154
sg8
S'Corroboree Frog'
p155
sg10
(lp156
I39
aI38
aI198
aI174
asg12
I0
sasS'VietnameseMossy161'
p157
(lp158
(dp159
g5
I0
sg6
S'Unspecified'
p160
sg8
S'Vietnamese Mossy Forg'
p161
sg10
(lp162
I30
aI15
aI203
aI213
asg12
I0
sasS'corroboreefrog838'
p163
(lp164
(dp165
g5
I0
sg6
S'Unspecified'
p166
sg8
S'Corroboree Frog'
p167
sg10
(lp168
I17
aI93
aI186
aI224
asg12
I1
sasS'818'
p169
(lp170
(dp171
g5
I0
sg6
S'Unspecified'
p172
sg8
S'Blue Mountains Tree Frog'
p173
sg10
(lp174
I48
aI9
aI224
aI220
asg12
I1
sasS'corroboreefrog609'
p175
(lp176
(dp177
g5
I0
sg6
S'Unspecified'
p178
sg8
S'Corroboree Frog'
p179
sg10
(lp180
I25
aI81
aI97
aI165
asg12
I0
sa(dp181
g5
I0
sg6
S'Unspecified'
p182
sg8
S'Corroboree Frog'
p183
sg10
(lp184
I97
aI36
aI185
aI114
asg12
I0
sa(dp185
g5
I0
sg6
S'Unspecified'
p186
sg8
S'Corroboree Frog'
p187
sg10
(lp188
I125
aI106
aI199
aI201
asg12
I0
sasS'GBF453'
p189
(lp190
(dp191
g5
I0
sg6
S'Unspecified'
p192
sg8
S'Great Barred Frog'
p193
sg10
(lp194
I62
aI37
aI175
aI200
asg12
I0
sasS'greetreefrog555'
p195
(lp196
(dp197
g5
I0
sg6
S'Unspecified'
p198
sg8
S'Green Tree Frog'
p199
sg10
(lp200
I21
aI35
aI203
aI216
asg12
I0
sasS'GGBF264'
p201
(lp202
(dp203
g5
I0
sg6
S'Unspecified'
p204
sg8
S'Green And Golden Bell Frog'
p205
sg10
(lp206
I43
aI68
aI154
aI191
asg12
I0
sasS'corroboreefrog1707'
p207
(lp208
(dp209
g5
I0
sg6
S'Unspecified'
p210
sg8
S'Corroboree Frog'
p211
sg10
(lp212
I26
aI36
aI200
aI168
asg12
I0
sasS'GBF107'
p213
(lp214
(dp215
g5
I0
sg6
S'Unspecified'
p216
sg8
S'Great Barred Frog'
p217
sg10
(lp218
I47
aI38
aI203
aI160
asg12
I0
sasS'greetreefrog1871'
p219
(lp220
(dp221
g5
I0
sg6
S'Unspecified'
p222
sg8
S'Green Tree Frog'
p223
sg10
(lp224
I7
aI6
aI209
aI192
asg12
I0
sasS'GGBF543'
p225
(lp226
(dp227
g5
I0
sg6
S'Unspecified'
p228
sg8
S'Green And Golden Bell Frog'
p229
sg10
(lp230
I117
aI103
aI189
aI224
asg12
I1
sasS'greetreefrog709'
p231
(lp232
(dp233
g5
I0
sg6
S'Unspecified'
p234
sg8
S'Green Tree Frog'
p235
sg10
(lp236
I16
aI44
aI193
aI210
asg12
I0
sasS'GBF100'
p237
(lp238
(dp239
g5
I0
sg6
S'Unspecified'
p240
sg8
S'Great Barred Frog'
p241
sg10
(lp242
I34
aI23
aI179
aI196
asg12
I0
sasS'RedCrownedToadlet588'
p243
(lp244
(dp245
g5
I0
sg6
S'Unspecified'
p246
sg8
S'Red Crowned Toadlet'
p247
sg10
(lp248
I11
aI7
aI175
aI170
asg12
I0
sasS'1799'
p249
(lp250
(dp251
g5
I0
sg6
S'Unspecified'
p252
sg8
S'Blue Mountains Tree Frog'
p253
sg10
(lp254
I10
aI43
aI198
aI210
asg12
I0
sasS'corroboreefrog67'
p255
(lp256
(dp257
g5
I0
sg6
S'Unspecified'
p258
sg8
S'Corroboree Frog'
p259
sg10
(lp260
I27
aI36
aI190
aI222
asg12
I0
sasS'greetreefrog172'
p261
(lp262
(dp263
g5
I0
sg6
S'Unspecified'
p264
sg8
S'Green Tree Frog'
p265
sg10
(lp266
I10
aI54
aI206
aI177
asg12
I0
sasS'GBF851'
p267
(lp268
(dp269
g5
I0
sg6
S'Unspecified'
p270
sg8
S'Great Barred Frog'
p271
sg10
(lp272
I95
aI51
aI172
aI172
asg12
I0
sasS'CaneToad1,106'
p273
(lp274
(dp275
g5
I0
sg6
S'Unspecified'
p276
sg8
S'CaneToad'
p277
sg10
(lp278
I24
aI22
aI189
aI200
asg12
I0
sasS'RedEyed257'
p279
(lp280
(dp281
g5
I0
sg6
S'Unspecified'
p282
sg8
S'Red Eyed Tree Frog'
p283
sg10
(lp284
I26
aI75
aI177
aI207
asg12
I0
sasS'corroboreefrog1029'
p285
(lp286
(dp287
g5
I0
sg6
S'Unspecified'
p288
sg8
S'Corroboree Frog'
p289
sg10
(lp290
I24
aI38
aI186
aI170
asg12
I0
sasS'GoldenPoisonDartFrog1115'
p291
(lp292
(dp293
g5
I0
sg6
S'Unspecified'
p294
sg8
S'Golden Poison Dart Frog'
p295
sg10
(lp296
I139
aI112
aI199
aI167
asg12
I0
sasS'GBF97'
p297
(lp298
(dp299
g5
I0
sg6
S'Unspecified'
p300
sg8
S'Great Barred Frog'
p301
sg10
(lp302
I35
aI40
aI207
aI219
asg12
I0
sasS'CaneToad2,046'
p303
(lp304
(dp305
g5
I0
sg6
S'Unspecified'
p306
sg8
S'CaneToad'
p307
sg10
(lp308
I30
aI34
aI186
aI161
asg12
I0
sasS'GBF209'
p309
(lp310
(dp311
g5
I0
sg6
S'Unspecified'
p312
sg8
S'Great Barred Frog'
p313
sg10
(lp314
I22
aI14
aI206
aI189
asg12
I0
sasS'corroboreefrog822'
p315
(lp316
(dp317
g5
I0
sg6
S'Unspecified'
p318
sg8
S'Corroboree Frog'
p319
sg10
(lp320
I16
aI18
aI199
aI223
asg12
I0
sasS'GGBF493'
p321
(lp322
(dp323
g5
I0
sg6
S'Unspecified'
p324
sg8
S'Green And Golden Bell Frog'
p325
sg10
(lp326
I31
aI39
aI177
aI179
asg12
I0
sasS'1497'
p327
(lp328
(dp329
g5
I0
sg6
S'Unspecified'
p330
sg8
S'Blue Mountains Tree Frog'
p331
sg10
(lp332
I57
aI40
aI211
aI186
asg12
I0
sasS'RedEyed85'
p333
(lp334
(dp335
g5
I0
sg6
S'Unspecified'
p336
sg8
S'Red Eyed Tree Frog'
p337
sg10
(lp338
I1
aI28
aI185
aI188
asg12
I1
sasS'1499'
p339
(lp340
(dp341
g5
I0
sg6
S'Unspecified'
p342
sg8
S'Blue Mountains Tree Frog'
p343
sg10
(lp344
I18
aI47
aI166
aI187
asg12
I0
sasS'RedEyed86'
p345
(lp346
(dp347
g5
I0
sg6
S'Unspecified'
p348
sg8
S'Red Eyed Tree Frog'
p349
sg10
(lp350
I2
aI7
aI213
aI198
asg12
I0
sasS'corroboreefrog696'
p351
(lp352
(dp353
g5
I0
sg6
S'Unspecified'
p354
sg8
S'Corroboree Frog'
p355
sg10
(lp356
I84
aI66
aI149
aI120
asg12
I0
sasS'RedEyed83'
p357
(lp358
(dp359
g5
I0
sg6
S'Unspecified'
p360
sg8
S'Red Eyed Tree Frog'
p361
sg10
(lp362
I32
aI65
aI205
aI169
asg12
I0
sasS'greetreefrog99'
p363
(lp364
(dp365
g5
I0
sg6
S'Unspecified'
p366
sg8
S'Green Tree Frog'
p367
sg10
(lp368
I25
aI23
aI209
aI180
asg12
I0
sasS'RedEyed771'
p369
(lp370
(dp371
g5
I0
sg6
S'Unspecified'
p372
sg8
S'Red Eyed Tree Frog'
p373
sg10
(lp374
I76
aI46
aI175
aI208
asg12
I0
sasS'greetreefrog402'
p375
(lp376
(dp377
g5
I0
sg6
S'Unspecified'
p378
sg8
S'Green Tree Frog'
p379
sg10
(lp380
I31
aI7
aI210
aI217
asg12
I0
sasS'1065'
p381
(lp382
(dp383
g5
I0
sg6
S'Unspecified'
p384
sg8
S'Blue Mountains Tree Frog'
p385
sg10
(lp386
I43
aI23
aI212
aI193
asg12
I0
sasS'RedCrownedToadlet114'
p387
(lp388
(dp389
g5
I0
sg6
S'Unspecified'
p390
sg8
S'Red Crowned Toadlet'
p391
sg10
(lp392
I30
aI1
aI212
aI119
asg12
I1
sasS'VietnameseMossy304'
p393
(lp394
(dp395
g5
I0
sg6
S'Unspecified'
p396
sg8
S'Vietnamese Mossy Forg'
p397
sg10
(lp398
I16
aI53
aI187
aI200
asg12
I0
sasS'RedCrownedToadlet73'
p399
(lp400
(dp401
g5
I0
sg6
S'Unspecified'
p402
sg8
S'Red Crowned Toadlet'
p403
sg10
(lp404
I29
aI48
aI164
aI181
asg12
I0
sasS'BluePoisonDartFrog1158'
p405
(lp406
(dp407
g5
I0
sg6
S'Unspecified'
p408
sg8
S'Blue Poison Dart Frog'
p409
sg10
(lp410
I48
aI1
aI199
aI163
asg12
I1
sasS'VietnameseMossy600'
p411
(lp412
(dp413
g5
I0
sg6
S'Unspecified'
p414
sg8
S'Vietnamese Mossy Forg'
p415
sg10
(lp416
I19
aI44
aI211
aI191
asg12
I0
sasS'GoldenPoisonDartFrog238'
p417
(lp418
(dp419
g5
I0
sg6
S'Unspecified'
p420
sg8
S'Golden Poison Dart Frog'
p421
sg10
(lp422
I22
aI30
aI193
aI196
asg12
I0
sasS'corroboreefrog482'
p423
(lp424
(dp425
g5
I0
sg6
S'Unspecified'
p426
sg8
S'Corroboree Frog'
p427
sg10
(lp428
I61
aI24
aI152
aI143
asg12
I0
sasS'corroboreefrog1263'
p429
(lp430
(dp431
g5
I0
sg6
S'Unspecified'
p432
sg8
S'Corroboree Frog'
p433
sg10
(lp434
I33
aI68
aI115
aI172
asg12
I0
sasS'BluePoisonDartFrog1153'
p435
(lp436
(dp437
g5
I0
sg6
S'Unspecified'
p438
sg8
S'Blue Poison Dart Frog'
p439
sg10
(lp440
I76
aI37
aI177
aI126
asg12
I0
sasS'1259'
p441
(lp442
(dp443
g5
I0
sg6
S'Unspecified'
p444
sg8
S'Blue Mountains Tree Frog'
p445
sg10
(lp446
I29
aI6
aI224
aI219
asg12
I1
sasS'1663'
p447
(lp448
(dp449
g5
I0
sg6
S'Unspecified'
p450
sg8
S'Blue Mountains Tree Frog'
p451
sg10
(lp452
I12
aI41
aI188
aI223
asg12
I0
sasS'GBF208'
p453
(lp454
(dp455
g5
I0
sg6
S'Unspecified'
p456
sg8
S'Great Barred Frog'
p457
sg10
(lp458
I4
aI10
aI224
aI202
asg12
I1
sasS'BluePoisonDartFrog1154'
p459
(lp460
(dp461
g5
I0
sg6
S'Unspecified'
p462
sg8
S'Blue Poison Dart Frog'
p463
sg10
(lp464
I73
aI78
aI149
aI159
asg12
I0
sasS'greetreefrog1827'
p465
(lp466
(dp467
g5
I0
sg6
S'Unspecified'
p468
sg8
S'Green Tree Frog'
p469
sg10
(lp470
I22
aI33
aI201
aI190
asg12
I0
sasS'VietnameseMossy542'
p471
(lp472
(dp473
g5
I0
sg6
S'Unspecified'
p474
sg8
S'Vietnamese Mossy Forg'
p475
sg10
(lp476
I30
aI52
aI192
aI195
asg12
I0
sasS'corroboreefrog625'
p477
(lp478
(dp479
g5
I0
sg6
S'Unspecified'
p480
sg8
S'Corroboree Frog'
p481
sg10
(lp482
I110
aI113
aI185
aI204
asg12
I0
sasS'GBF646'
p483
(lp484
(dp485
g5
I0
sg6
S'Unspecified'
p486
sg8
S'Great Barred Frog'
p487
sg10
(lp488
I46
aI33
aI202
aI201
asg12
I0
sasS'BluePoisonDartFrog569'
p489
(lp490
(dp491
g5
I0
sg6
S'Unspecified'
p492
sg8
S'Blue Poison Dart Frog'
p493
sg10
(lp494
I68
aI45
aI162
aI180
asg12
I0
sasS'594'
p495
(lp496
(dp497
g5
I0
sg6
S'Unspecified'
p498
sg8
S'Blue Mountains Tree Frog'
p499
sg10
(lp500
I11
aI67
aI199
aI170
asg12
I0
sasS'GoldenPoisonDartFrog28'
p501
(lp502
(dp503
g5
I0
sg6
S'Unspecified'
p504
sg8
S'Golden Poison Dart Frog'
p505
sg10
(lp506
I53
aI60
aI153
aI179
asg12
I0
sasS'BluePoisonDartFrog1036'
p507
(lp508
(dp509
g5
I0
sg6
S'Unspecified'
p510
sg8
S'Blue Poison Dart Frog'
p511
sg10
(lp512
I21
aI21
aI169
aI179
asg12
I0
sasS'CaneToad1,074'
p513
(lp514
(dp515
g5
I0
sg6
S'Unspecified'
p516
sg8
S'CaneToad'
p517
sg10
(lp518
I17
aI25
aI175
aI174
asg12
I0
sasS'CaneToad1,818'
p519
(lp520
(dp521
g5
I0
sg6
S'Unspecified'
p522
sg8
S'CaneToad'
p523
sg10
(lp524
I4
aI4
aI219
aI212
asg12
I0
sasS'VietnameseMossy423'
p525
(lp526
(dp527
g5
I0
sg6
S'Unspecified'
p528
sg8
S'Vietnamese Mossy Forg'
p529
sg10
(lp530
I61
aI6
aI224
aI140
asg12
I1
sasS'corroboreefrog1003'
p531
(lp532
(dp533
g5
I0
sg6
S'Unspecified'
p534
sg8
S'Corroboree Frog'
p535
sg10
(lp536
I11
aI8
aI211
aI189
asg12
I0
sasS'corroboreefrog936'
p537
(lp538
(dp539
g5
I0
sg6
S'Unspecified'
p540
sg8
S'Corroboree Frog'
p541
sg10
(lp542
I81
aI73
aI214
aI195
asg12
I0
sasS'CaneToad1,779'
p543
(lp544
(dp545
g5
I0
sg6
S'Unspecified'
p546
sg8
S'CaneToad'
p547
sg10
(lp548
I32
aI4
aI191
aI220
asg12
I0
sasS'corroboreefrog934'
p549
(lp550
(dp551
g5
I0
sg6
S'Unspecified'
p552
sg8
S'Corroboree Frog'
p553
sg10
(lp554
I25
aI10
aI153
aI144
asg12
I0
sasS'CaneToad1,175'
p555
(lp556
(dp557
g5
I0
sg6
S'Unspecified'
p558
sg8
S'CaneToad'
p559
sg10
(lp560
I19
aI49
aI222
aI222
asg12
I0
sasS'CaneToad1,174'
p561
(lp562
(dp563
g5
I0
sg6
S'Unspecified'
p564
sg8
S'CaneToad'
p565
sg10
(lp566
I97
aI50
aI234
aI223
asg12
I0
sasS'GBF923'
p567
(lp568
(dp569
g5
I0
sg6
S'Unspecified'
p570
sg8
S'Great Barred Frog'
p571
sg10
(lp572
I40
aI25
aI178
aI195
asg12
I0
sasS'RedCrownedToadlet500'
p573
(lp574
(dp575
g5
I0
sg6
S'Unspecified'
p576
sg8
S'Red Crowned Toadlet'
p577
sg10
(lp578
I24
aI50
aI178
aI140
asg12
I0
sasS'276'
p579
(lp580
(dp581
g5
I0
sg6
S'Unspecified'
p582
sg8
S'Blue Mountains Tree Frog'
p583
sg10
(lp584
I51
aI16
aI189
aI214
asg12
I0
sasS'RedEyed476'
p585
(lp586
(dp587
g5
I0
sg6
S'Unspecified'
p588
sg8
S'Red Eyed Tree Frog'
p589
sg10
(lp590
I4
aI90
aI171
aI199
asg12
I0
sasS'278'
p591
(lp592
(dp593
g5
I0
sg6
S'Unspecified'
p594
sg8
S'Blue Mountains Tree Frog'
p595
sg10
(lp596
I29
aI43
aI141
aI206
asg12
I0
sasS'RedEyed551'
p597
(lp598
(dp599
g5
I0
sg6
S'Unspecified'
p600
sg8
S'Red Eyed Tree Frog'
p601
sg10
(lp602
I72
aI41
aI144
aI186
asg12
I0
sasS'RedCrownedToadlet464'
p603
(lp604
(dp605
g5
I0
sg6
S'Unspecified'
p606
sg8
S'Red Crowned Toadlet'
p607
sg10
(lp608
I42
aI52
aI136
aI158
asg12
I0
sasS'RedEyed221'
p609
(lp610
(dp611
g5
I0
sg6
S'Unspecified'
p612
sg8
S'Red Eyed Tree Frog'
p613
sg10
(lp614
I73
aI57
aI224
aI154
asg12
I1
sasS'RedCrownedToadlet463'
p615
(lp616
(dp617
g5
I0
sg6
S'Unspecified'
p618
sg8
S'Red Crowned Toadlet'
p619
sg10
(lp620
I42
aI57
aI194
aI188
asg12
I0
sasS'RedCrownedToadlet461'
p621
(lp622
(dp623
g5
I0
sg6
S'Unspecified'
p624
sg8
S'Red Crowned Toadlet'
p625
sg10
(lp626
I1
aI21
aI155
aI149
asg12
I1
sasS'RedEyed652'
p627
(lp628
(dp629
g5
I0
sg6
S'Unspecified'
p630
sg8
S'Red Eyed Tree Frog'
p631
sg10
(lp632
I27
aI72
aI200
aI214
asg12
I0
sasS'RedCrownedToadlet262'
p633
(lp634
(dp635
g5
I0
sg6
S'Unspecified'
p636
sg8
S'Red Crowned Toadlet'
p637
sg10
(lp638
I23
aI61
aI182
aI173
asg12
I0
sasS'VietnameseMossy470'
p639
(lp640
(dp641
g5
I0
sg6
S'Unspecified'
p642
sg8
S'Vietnamese Mossy Forg'
p643
sg10
(lp644
I7
aI78
aI203
aI197
asg12
I0
sasS'RedCrownedToadlet266'
p645
(lp646
(dp647
g5
I0
sg6
S'Unspecified'
p648
sg8
S'Red Crowned Toadlet'
p649
sg10
(lp650
I23
aI28
aI174
aI193
asg12
I0
sasS'RedCrownedToadlet267'
p651
(lp652
(dp653
g5
I0
sg6
S'Unspecified'
p654
sg8
S'Red Crowned Toadlet'
p655
sg10
(lp656
I5
aI32
aI202
aI156
asg12
I0
sasS'greetreefrog1085'
p657
(lp658
(dp659
g5
I0
sg6
S'Unspecified'
p660
sg8
S'Green Tree Frog'
p661
sg10
(lp662
I22
aI27
aI191
aI193
asg12
I0
sasS'VietnameseMossy47'
p663
(lp664
(dp665
g5
I0
sg6
S'Unspecified'
p666
sg8
S'Vietnamese Mossy Forg'
p667
sg10
(lp668
I30
aI55
aI133
aI205
asg12
I0
sasS'greetreefrog1087'
p669
(lp670
(dp671
g5
I0
sg6
S'Unspecified'
p672
sg8
S'Green Tree Frog'
p673
sg10
(lp674
I44
aI14
aI209
aI209
asg12
I0
sasS'RedEyed796'
p675
(lp676
(dp677
g5
I0
sg6
S'Unspecified'
p678
sg8
S'Red Eyed Tree Frog'
p679
sg10
(lp680
I30
aI40
aI193
aI160
asg12
I0
sasS'RedCrownedToadlet187'
p681
(lp682
(dp683
g5
I0
sg6
S'Unspecified'
p684
sg8
S'Red Crowned Toadlet'
p685
sg10
(lp686
I17
aI112
aI160
aI203
asg12
I0
sasS'GoldenPoisonDartFrog408'
p687
(lp688
(dp689
g5
I0
sg6
S'Unspecified'
p690
sg8
S'Golden Poison Dart Frog'
p691
sg10
(lp692
I3
aI5
aI223
aI214
asg12
I0
sasS'RedEyed15'
p693
(lp694
(dp695
g5
I0
sg6
S'Unspecified'
p696
sg8
S'Red Eyed Tree Frog'
p697
sg10
(lp698
I10
aI34
aI215
aI124
asg12
I0
sasS'1018'
p699
(lp700
(dp701
g5
I0
sg6
S'Unspecified'
p702
sg8
S'Blue Mountains Tree Frog'
p703
sg10
(lp704
I6
aI53
aI221
aI202
asg12
I0
sasS'521'
p705
(lp706
(dp707
g5
I0
sg6
S'Unspecified'
p708
sg8
S'Blue Mountains Tree Frog'
p709
sg10
(lp710
I24
aI1
aI159
aI221
asg12
I1
sasS'procVietnameseMossy933'
p711
(lp712
(dp713
g5
I0
sg6
S'Unspecified'
p714
sg8
S'Vietnamese Mossy Forg'
p715
sg10
(lp716
I53
aI49
aI224
aI197
asg12
I1
sasS'RedEyed583'
p717
(lp718
(dp719
g5
I0
sg6
S'Unspecified'
p720
sg8
S'Red Eyed Tree Frog'
p721
sg10
(lp722
I44
aI47
aI176
aI184
asg12
I0
sasS'greetreefrog671'
p723
(lp724
(dp725
g5
I0
sg6
S'Unspecified'
p726
sg8
S'Green Tree Frog'
p727
sg10
(lp728
I70
aI67
aI182
aI151
asg12
I0
sasS'1012'
p729
(lp730
(dp731
g5
I0
sg6
S'Unspecified'
p732
sg8
S'Blue Mountains Tree Frog'
p733
sg10
(lp734
I19
aI7
aI177
aI214
asg12
I0
sasS'BluePoisonDartFrog1242'
p735
(lp736
(dp737
g5
I0
sg6
S'Unspecified'
p738
sg8
S'Blue Poison Dart Frog'
p739
sg10
(lp740
I51
aI60
aI171
aI190
asg12
I0
sasS'RedCrownedToadlet166'
p741
(lp742
(dp743
g5
I0
sg6
S'Unspecified'
p744
sg8
S'Red Crowned Toadlet'
p745
sg10
(lp746
I44
aI54
aI212
aI173
asg12
I0
sasS'greetreefrog1326'
p747
(lp748
(dp749
g5
I0
sg6
S'Unspecified'
p750
sg8
S'Green Tree Frog'
p751
sg10
(lp752
I30
aI1
aI196
aI224
asg12
I1
sasS'BluePoisonDartFrog1247'
p753
(lp754
(dp755
g5
I0
sg6
S'Unspecified'
p756
sg8
S'Blue Poison Dart Frog'
p757
sg10
(lp758
I48
aI43
aI144
aI147
asg12
I0
sasS'BluePoisonDartFrog260'
p759
(lp760
(dp761
g5
I0
sg6
S'Unspecified'
p762
sg8
S'Blue Poison Dart Frog'
p763
sg10
(lp764
I86
aI32
aI221
aI222
asg12
I0
sasS'GoldenPoisonDartFrog589'
p765
(lp766
(dp767
g5
I0
sg6
S'Unspecified'
p768
sg8
S'Golden Poison Dart Frog'
p769
sg10
(lp770
I61
aI54
aI160
aI164
asg12
I0
sasS'BluePoisonDartFrog301'
p771
(lp772
(dp773
g5
I0
sg6
S'Unspecified'
p774
sg8
S'Blue Poison Dart Frog'
p775
sg10
(lp776
I89
aI50
aI191
aI194
asg12
I0
sasS'greetreefrog1287'
p777
(lp778
(dp779
g5
I0
sg6
S'Unspecified'
p780
sg8
S'Green Tree Frog'
p781
sg10
(lp782
I103
aI8
aI196
aI112
asg12
I0
sasS'greetreefrog1284'
p783
(lp784
(dp785
g5
I0
sg6
S'Unspecified'
p786
sg8
S'Green Tree Frog'
p787
sg10
(lp788
I5
aI22
aI182
aI151
asg12
I0
sasS'BluePoisonDartFrog302'
p789
(lp790
(dp791
g5
I0
sg6
S'Unspecified'
p792
sg8
S'Blue Poison Dart Frog'
p793
sg10
(lp794
I2
aI34
aI65
aI101
asg12
I0
sa(dp795
g5
I0
sg6
S'Unspecified'
p796
sg8
S'Blue Poison Dart Frog'
p797
sg10
(lp798
I1
aI115
aI73
aI183
asg12
I1
sa(dp799
g5
I0
sg6
S'Unspecified'
p800
sg8
S'Blue Poison Dart Frog'
p801
sg10
(lp802
I76
aI61
aI134
aI149
asg12
I0
sa(dp803
g5
I0
sg6
S'Unspecified'
p804
sg8
S'Blue Poison Dart Frog'
p805
sg10
(lp806
I145
aI35
aI220
aI95
asg12
I0
sa(dp807
g5
I0
sg6
S'Unspecified'
p808
sg8
S'Blue Poison Dart Frog'
p809
sg10
(lp810
I142
aI104
aI214
aI175
asg12
I0
sasS'GBF73'
p811
(lp812
(dp813
g5
I0
sg6
S'Unspecified'
p814
sg8
S'Great Barred Frog'
p815
sg10
(lp816
I9
aI27
aI206
aI214
asg12
I0
sasS'greetreefrog1283'
p817
(lp818
(dp819
g5
I0
sg6
S'Unspecified'
p820
sg8
S'Green Tree Frog'
p821
sg10
(lp822
I24
aI10
aI150
aI183
asg12
I0
sasS'procVietnameseMossy892'
p823
(lp824
(dp825
g5
I0
sg6
S'Unspecified'
p826
sg8
S'Vietnamese Mossy Forg'
p827
sg10
(lp828
I29
aI2
aI169
aI210
asg12
I0
sasS'VietnameseMossy868'
p829
(lp830
(dp831
g5
I0
sg6
S'Unspecified'
p832
sg8
S'Vietnamese Mossy Forg'
p833
sg10
(lp834
I75
aI62
aI222
aI183
asg12
I0
sasS'BluePoisonDartFrog1475'
p835
(lp836
(dp837
g5
I0
sg6
S'Unspecified'
p838
sg8
S'Blue Poison Dart Frog'
p839
sg10
(lp840
I30
aI47
aI196
aI189
asg12
I0
sasS'GoldenPoisonDartFrog418'
p841
(lp842
(dp843
g5
I0
sg6
S'Unspecified'
p844
sg8
S'Golden Poison Dart Frog'
p845
sg10
(lp846
I46
aI7
aI154
aI205
asg12
I0
sasS'BluePoisonDartFrog466'
p847
(lp848
(dp849
g5
I0
sg6
S'Unspecified'
p850
sg8
S'Blue Poison Dart Frog'
p851
sg10
(lp852
I65
aI68
aI180
aI176
asg12
I0
sasS'GGBF298'
p853
(lp854
(dp855
g5
I0
sg6
S'Unspecified'
p856
sg8
S'Green And Golden Bell Frog'
p857
sg10
(lp858
I3
aI2
aI224
aI196
asg12
I1
sasS'corroboreefrog83'
p859
(lp860
(dp861
g5
I0
sg6
S'Unspecified'
p862
sg8
S'Corroboree Frog'
p863
sg10
(lp864
I69
aI1
aI224
aI187
asg12
I1
sasS'VietnameseMossy862'
p865
(lp866
(dp867
g5
I0
sg6
S'Unspecified'
p868
sg8
S'Vietnamese Mossy Forg'
p869
sg10
(lp870
I132
aI110
aI184
aI160
asg12
I0
sasS'RedEyed42'
p871
(lp872
(dp873
g5
I0
sg6
S'Unspecified'
p874
sg8
S'Red Eyed Tree Frog'
p875
sg10
(lp876
I38
aI20
aI180
aI193
asg12
I0
sasS'VietnameseMossy36'
p877
(lp878
(dp879
g5
I0
sg6
S'Unspecified'
p880
sg8
S'Vietnamese Mossy Forg'
p881
sg10
(lp882
I34
aI73
aI182
aI190
asg12
I0
sasS'GGBF149'
p883
(lp884
(dp885
g5
I0
sg6
S'Unspecified'
p886
sg8
S'Green And Golden Bell Frog'
p887
sg10
(lp888
I55
aI8
aI224
aI175
asg12
I1
sasS'RedCrownedToadlet479'
p889
(lp890
(dp891
g5
I0
sg6
S'Unspecified'
p892
sg8
S'Red Crowned Toadlet'
p893
sg10
(lp894
I35
aI43
aI201
aI196
asg12
I0
sasS'GoldenPoisonDartFrog94'
p895
(lp896
(dp897
g5
I0
sg6
S'Unspecified'
p898
sg8
S'Golden Poison Dart Frog'
p899
sg10
(lp900
I53
aI77
aI112
aI144
asg12
I0
sasS'CaneToad1,085'
p901
(lp902
(dp903
g5
I0
sg6
S'Unspecified'
p904
sg8
S'CaneToad'
p905
sg10
(lp906
I47
aI5
aI194
aI223
asg12
I0
sasS'GoldenPoisonDartFrog102'
p907
(lp908
(dp909
g5
I0
sg6
S'Unspecified'
p910
sg8
S'Golden Poison Dart Frog'
p911
sg10
(lp912
I40
aI44
aI180
aI192
asg12
I0
sasS'GoldenPoisonDartFrog496'
p913
(lp914
(dp915
g5
I0
sg6
S'Unspecified'
p916
sg8
S'Golden Poison Dart Frog'
p917
sg10
(lp918
I16
aI41
aI162
aI148
asg12
I0
sasS'GoldenPoisonDartFrog497'
p919
(lp920
(dp921
g5
I0
sg6
S'Unspecified'
p922
sg8
S'Golden Poison Dart Frog'
p923
sg10
(lp924
I75
aI58
aI152
aI164
asg12
I0
sasS'31'
p925
(lp926
(dp927
g5
I0
sg6
S'Unspecified'
p928
sg8
S'Blue Mountains Tree Frog'
p929
sg10
(lp930
I43
aI32
aI193
aI193
asg12
I0
sasS'CaneToad1,387'
p931
(lp932
(dp933
g5
I0
sg6
S'Unspecified'
p934
sg8
S'CaneToad'
p935
sg10
(lp936
I8
aI30
aI220
aI224
asg12
I1
sasS'VietnameseMossy338'
p937
(lp938
(dp939
g5
I0
sg6
S'Unspecified'
p940
sg8
S'Vietnamese Mossy Forg'
p941
sg10
(lp942
I59
aI47
aI144
aI157
asg12
I0
sasS'BluePoisonDartFrog1081'
p943
(lp944
(dp945
g5
I0
sg6
S'Unspecified'
p946
sg8
S'Blue Poison Dart Frog'
p947
sg10
(lp948
I9
aI146
aI188
aI214
asg12
I0
sasS'corroboreefrog809'
p949
(lp950
(dp951
g5
I0
sg6
S'Unspecified'
p952
sg8
S'Corroboree Frog'
p953
sg10
(lp954
I3
aI44
aI160
aI176
asg12
I0
sasS'1530'
p955
(lp956
(dp957
g5
I0
sg6
S'Unspecified'
p958
sg8
S'Blue Mountains Tree Frog'
p959
sg10
(lp960
I26
aI38
aI195
aI167
asg12
I0
sasS'1249'
p961
(lp962
(dp963
g5
I0
sg6
S'Unspecified'
p964
sg8
S'Blue Mountains Tree Frog'
p965
sg10
(lp966
I1
aI20
aI162
aI218
asg12
I1
sasS'GGBF440'
p967
(lp968
(dp969
g5
I0
sg6
S'Unspecified'
p970
sg8
S'Green And Golden Bell Frog'
p971
sg10
(lp972
I52
aI15
aI159
aI181
asg12
I0
sasS'GoldenPoisonDartFrog249'
p973
(lp974
(dp975
g5
I0
sg6
S'Unspecified'
p976
sg8
S'Golden Poison Dart Frog'
p977
sg10
(lp978
I8
aI55
aI82
aI161
asg12
I0
sasS'GoldenPoisonDartFrog91'
p979
(lp980
(dp981
g5
I0
sg6
S'Unspecified'
p982
sg8
S'Golden Poison Dart Frog'
p983
sg10
(lp984
I49
aI24
aI184
aI173
asg12
I0
sasS'corroboreefrog1076'
p985
(lp986
(dp987
g5
I0
sg6
S'Unspecified'
p988
sg8
S'Corroboree Frog'
p989
sg10
(lp990
I22
aI51
aI220
aI172
asg12
I0
sasS'corroboreefrog802'
p991
(lp992
(dp993
g5
I0
sg6
S'Unspecified'
p994
sg8
S'Corroboree Frog'
p995
sg10
(lp996
I58
aI53
aI184
aI160
asg12
I0
sasS'corroboreefrog92'
p997
(lp998
(dp999
g5
I0
sg6
S'Unspecified'
p1000
sg8
S'Corroboree Frog'
p1001
sg10
(lp1002
I85
aI85
aI143
aI142
asg12
I0
sasS'BluePoisonDartFrog414'
p1003
(lp1004
(dp1005
g5
I0
sg6
S'Unspecified'
p1006
sg8
S'Blue Poison Dart Frog'
p1007
sg10
(lp1008
I38
aI14
aI172
aI193
asg12
I0
sasS'BluePoisonDartFrog943'
p1009
(lp1010
(dp1011
g5
I0
sg6
S'Unspecified'
p1012
sg8
S'Blue Poison Dart Frog'
p1013
sg10
(lp1014
I130
aI14
aI198
aI96
asg12
I0
sasS'GGBF901'
p1015
(lp1016
(dp1017
g5
I0
sg6
S'Unspecified'
p1018
sg8
S'Green And Golden Bell Frog'
p1019
sg10
(lp1020
I72
aI49
aI198
aI172
asg12
I0
sasS'RedEyed219'
p1021
(lp1022
(dp1023
g5
I0
sg6
S'Unspecified'
p1024
sg8
S'Red Eyed Tree Frog'
p1025
sg10
(lp1026
I91
aI34
aI222
aI197
asg12
I0
sasS'greetreefrog1119'
p1027
(lp1028
(dp1029
g5
I0
sg6
S'Unspecified'
p1030
sg8
S'Green Tree Frog'
p1031
sg10
(lp1032
I87
aI44
aI172
aI157
asg12
I0
sasS'VietnameseMossy160'
p1033
(lp1034
(dp1035
g5
I0
sg6
S'Unspecified'
p1036
sg8
S'Vietnamese Mossy Forg'
p1037
sg10
(lp1038
I63
aI4
aI210
aI218
asg12
I0
sasS'GGBF85'
p1039
(lp1040
(dp1041
g5
I0
sg6
S'Unspecified'
p1042
sg8
S'Green And Golden Bell Frog'
p1043
sg10
(lp1044
I2
aI18
aI213
aI211
asg12
I0
sasS'CaneToad1,494'
p1045
(lp1046
(dp1047
g5
I0
sg6
S'Unspecified'
p1048
sg8
S'CaneToad'
p1049
sg10
(lp1050
I24
aI62
aI135
aI160
asg12
I0
sasS'VietnameseMossy180'
p1051
(lp1052
(dp1053
g5
I0
sg6
S'Unspecified'
p1054
sg8
S'Vietnamese Mossy Forg'
p1055
sg10
(lp1056
I30
aI6
aI222
aI214
asg12
I0
sasS'RedCrownedToadlet968'
p1057
(lp1058
(dp1059
g5
I0
sg6
S'Unspecified'
p1060
sg8
S'Red Crowned Toadlet'
p1061
sg10
(lp1062
I34
aI39
aI191
aI196
asg12
I0
sasS'RedEyed579'
p1063
(lp1064
(dp1065
g5
I0
sg6
S'Unspecified'
p1066
sg8
S'Red Eyed Tree Frog'
p1067
sg10
(lp1068
I81
aI51
aI159
aI180
asg12
I0
sasS'BluePoisonDartFrog1390'
p1069
(lp1070
(dp1071
g5
I0
sg6
S'Unspecified'
p1072
sg8
S'Blue Poison Dart Frog'
p1073
sg10
(lp1074
I21
aI22
aI110
aI132
asg12
I0
sa(dp1075
g5
I0
sg6
S'Unspecified'
p1076
sg8
S'Blue Poison Dart Frog'
p1077
sg10
(lp1078
I113
aI33
aI221
aI141
asg12
I0
sasS'greetreefrog1427'
p1079
(lp1080
(dp1081
g5
I0
sg6
S'Unspecified'
p1082
sg8
S'Green Tree Frog'
p1083
sg10
(lp1084
I28
aI30
aI181
aI189
asg12
I0
sasS'BluePoisonDartFrog1392'
p1085
(lp1086
(dp1087
g5
I0
sg6
S'Unspecified'
p1088
sg8
S'Blue Poison Dart Frog'
p1089
sg10
(lp1090
I19
aI37
aI208
aI181
asg12
I0
sasS'GGBF226'
p1091
(lp1092
(dp1093
g5
I0
sg6
S'Unspecified'
p1094
sg8
S'Green And Golden Bell Frog'
p1095
sg10
(lp1096
I26
aI23
aI198
aI211
asg12
I0
sasS'GoldenPoisonDartFrog560'
p1097
(lp1098
(dp1099
g5
I0
sg6
S'Unspecified'
p1100
sg8
S'Golden Poison Dart Frog'
p1101
sg10
(lp1102
I1
aI42
aI180
aI223
asg12
I1
sasS'BluePoisonDartFrog1396'
p1103
(lp1104
(dp1105
g5
I0
sg6
S'Unspecified'
p1106
sg8
S'Blue Poison Dart Frog'
p1107
sg10
(lp1108
I65
aI55
aI163
aI155
asg12
I0
sasS'GoldenPoisonDartFrog666'
p1109
(lp1110
(dp1111
g5
I0
sg6
S'Unspecified'
p1112
sg8
S'Golden Poison Dart Frog'
p1113
sg10
(lp1114
I40
aI73
aI134
aI177
asg12
I0
sasS'GoldenPoisonDartFrog885'
p1115
(lp1116
(dp1117
g5
I0
sg6
S'Unspecified'
p1118
sg8
S'Golden Poison Dart Frog'
p1119
sg10
(lp1120
I16
aI28
aI141
aI205
asg12
I0
sasS'corroboreefrog891'
p1121
(lp1122
(dp1123
g5
I0
sg6
S'Unspecified'
p1124
sg8
S'Corroboree Frog'
p1125
sg10
(lp1126
I44
aI43
aI173
aI164
asg12
I0
sasS'RedEyed471'
p1127
(lp1128
(dp1129
g5
I0
sg6
S'Unspecified'
p1130
sg8
S'Red Eyed Tree Frog'
p1131
sg10
(lp1132
I37
aI27
aI196
aI200
asg12
I0
sasS'greetreefrog210'
p1133
(lp1134
(dp1135
g5
I0
sg6
S'Unspecified'
p1136
sg8
S'Green Tree Frog'
p1137
sg10
(lp1138
I56
aI28
aI176
aI206
asg12
I0
sasS'GBF418'
p1139
(lp1140
(dp1141
g5
I0
sg6
S'Unspecified'
p1142
sg8
S'Great Barred Frog'
p1143
sg10
(lp1144
I52
aI38
aI194
aI182
asg12
I0
sasS'RedCrownedToadlet678'
p1145
(lp1146
(dp1147
g5
I0
sg6
S'Unspecified'
p1148
sg8
S'Red Crowned Toadlet'
p1149
sg10
(lp1150
I10
aI12
aI212
aI194
asg12
I0
sasS'GoldenPoisonDartFrog147'
p1151
(lp1152
(dp1153
g5
I0
sg6
S'Unspecified'
p1154
sg8
S'Golden Poison Dart Frog'
p1155
sg10
(lp1156
I64
aI39
aI191
aI213
asg12
I0
sasS'greetreefrog1682'
p1157
(lp1158
(dp1159
g5
I0
sg6
S'Unspecified'
p1160
sg8
S'Green Tree Frog'
p1161
sg10
(lp1162
I28
aI23
aI199
aI221
asg12
I0
sasS'VietnameseMossy202'
p1163
(lp1164
(dp1165
g5
I0
sg6
S'Unspecified'
p1166
sg8
S'Vietnamese Mossy Forg'
p1167
sg10
(lp1168
I42
aI46
aI159
aI192
asg12
I0
sasS'BluePoisonDartFrog786'
p1169
(lp1170
(dp1171
g5
I0
sg6
S'Unspecified'
p1172
sg8
S'Blue Poison Dart Frog'
p1173
sg10
(lp1174
I8
aI10
aI222
aI224
asg12
I1
sasS'BluePoisonDartFrog780'
p1175
(lp1176
(dp1177
g5
I0
sg6
S'Unspecified'
p1178
sg8
S'Blue Poison Dart Frog'
p1179
sg10
(lp1180
I80
aI53
aI187
aI172
asg12
I0
sasS'BluePoisonDartFrog782'
p1181
(lp1182
(dp1183
g5
I0
sg6
S'Unspecified'
p1184
sg8
S'Blue Poison Dart Frog'
p1185
sg10
(lp1186
I8
aI13
aI217
aI222
asg12
I0
sasS'greetreefrog1210'
p1187
(lp1188
(dp1189
g5
I0
sg6
S'Unspecified'
p1190
sg8
S'Green Tree Frog'
p1191
sg10
(lp1192
I59
aI39
aI183
aI220
asg12
I0
sasS'GBF388'
p1193
(lp1194
(dp1195
g5
I0
sg6
S'Unspecified'
p1196
sg8
S'Great Barred Frog'
p1197
sg10
(lp1198
I58
aI54
aI174
aI170
asg12
I0
sasS'GGBF611'
p1199
(lp1200
(dp1201
g5
I0
sg6
S'Unspecified'
p1202
sg8
S'Green And Golden Bell Frog'
p1203
sg10
(lp1204
I19
aI59
aI217
aI159
asg12
I0
sasS'GGBF340'
p1205
(lp1206
(dp1207
g5
I0
sg6
S'Unspecified'
p1208
sg8
S'Green And Golden Bell Frog'
p1209
sg10
(lp1210
I50
aI37
aI203
aI190
asg12
I0
sasS'RedEyed729'
p1211
(lp1212
(dp1213
g5
I0
sg6
S'Unspecified'
p1214
sg8
S'Red Eyed Tree Frog'
p1215
sg10
(lp1216
I27
aI34
aI155
aI202
asg12
I0
sasS'BluePoisonDartFrog1198'
p1217
(lp1218
(dp1219
g5
I0
sg6
S'Unspecified'
p1220
sg8
S'Blue Poison Dart Frog'
p1221
sg10
(lp1222
I41
aI65
aI116
aI157
asg12
I0
sa(dp1223
g5
I0
sg6
S'Unspecified'
p1224
sg8
S'Blue Poison Dart Frog'
p1225
sg10
(lp1226
I114
aI51
aI190
aI167
asg12
I0
sasS'GoldenPoisonDartFrog507'
p1227
(lp1228
(dp1229
g5
I0
sg6
S'Unspecified'
p1230
sg8
S'Golden Poison Dart Frog'
p1231
sg10
(lp1232
I56
aI52
aI190
aI180
asg12
I0
sasS'corroboreefrog1217'
p1233
(lp1234
(dp1235
g5
I0
sg6
S'Unspecified'
p1236
sg8
S'Corroboree Frog'
p1237
sg10
(lp1238
I27
aI18
aI106
aI81
asg12
I0
sa(dp1239
g5
I0
sg6
S'Unspecified'
p1240
sg8
S'Corroboree Frog'
p1241
sg10
(lp1242
I97
aI94
aI182
aI139
asg12
I0
sa(dp1243
g5
I0
sg6
S'Unspecified'
p1244
sg8
S'Corroboree Frog'
p1245
sg10
(lp1246
I48
aI148
aI125
aI195
asg12
I0
sasS'CaneToad2,000'
p1247
(lp1248
(dp1249
g5
I0
sg6
S'Unspecified'
p1250
sg8
S'CaneToad'
p1251
sg10
(lp1252
I22
aI25
aI116
aI204
asg12
I0
sasS'greetreefrog646'
p1253
(lp1254
(dp1255
g5
I0
sg6
S'Unspecified'
p1256
sg8
S'Green Tree Frog'
p1257
sg10
(lp1258
I39
aI9
aI216
aI195
asg12
I0
sasS'GBF895'
p1259
(lp1260
(dp1261
g5
I0
sg6
S'Unspecified'
p1262
sg8
S'Great Barred Frog'
p1263
sg10
(lp1264
I50
aI38
aI161
aI171
asg12
I0
sasS'GBF897'
p1265
(lp1266
(dp1267
g5
I0
sg6
S'Unspecified'
p1268
sg8
S'Great Barred Frog'
p1269
sg10
(lp1270
I4
aI24
aI211
aI176
asg12
I0
sasS'GoldenPoisonDartFrog158'
p1271
(lp1272
(dp1273
g5
I0
sg6
S'Unspecified'
p1274
sg8
S'Golden Poison Dart Frog'
p1275
sg10
(lp1276
I36
aI53
aI174
aI182
asg12
I0
sasS'corroboreefrog795'
p1277
(lp1278
(dp1279
g5
I0
sg6
S'Unspecified'
p1280
sg8
S'Corroboree Frog'
p1281
sg10
(lp1282
I70
aI63
aI195
aI207
asg12
I0
sasS'CaneToad1,429'
p1283
(lp1284
(dp1285
g5
I0
sg6
S'Unspecified'
p1286
sg8
S'CaneToad'
p1287
sg10
(lp1288
I4
aI35
aI224
aI210
asg12
I1
sasS'RedCrownedToadlet621'
p1289
(lp1290
(dp1291
g5
I0
sg6
S'Unspecified'
p1292
sg8
S'Red Crowned Toadlet'
p1293
sg10
(lp1294
I24
aI51
aI192
aI191
asg12
I0
sasS'CaneToad1,422'
p1295
(lp1296
(dp1297
g5
I0
sg6
S'Unspecified'
p1298
sg8
S'CaneToad'
p1299
sg10
(lp1300
I4
aI3
aI208
aI182
asg12
I0
sasS'corroboreefrog487'
p1301
(lp1302
(dp1303
g5
I0
sg6
S'Unspecified'
p1304
sg8
S'Corroboree Frog'
p1305
sg10
(lp1306
I24
aI26
aI196
aI182
asg12
I0
sasS'GBF3'
p1307
(lp1308
(dp1309
g5
I0
sg6
S'Unspecified'
p1310
sg8
S'Great Barred Frog'
p1311
sg10
(lp1312
I1
aI1
aI220
aI220
asg12
I1
sasS'RedEyed597'
p1313
(lp1314
(dp1315
g5
I0
sg6
S'Unspecified'
p1316
sg8
S'Red Eyed Tree Frog'
p1317
sg10
(lp1318
I70
aI49
aI195
aI224
asg12
I1
sasS'GBF565'
p1319
(lp1320
(dp1321
g5
I0
sg6
S'Unspecified'
p1322
sg8
S'Great Barred Frog'
p1323
sg10
(lp1324
I20
aI1
aI193
aI207
asg12
I1
sasS'corroboreefrog66'
p1325
(lp1326
(dp1327
g5
I0
sg6
S'Unspecified'
p1328
sg8
S'Corroboree Frog'
p1329
sg10
(lp1330
I36
aI5
aI191
aI184
asg12
I0
sasS'corroboreefrog349'
p1331
(lp1332
(dp1333
g5
I0
sg6
S'Unspecified'
p1334
sg8
S'Corroboree Frog'
p1335
sg10
(lp1336
I34
aI41
aI210
aI201
asg12
I0
sasS'greetreefrog757'
p1337
(lp1338
(dp1339
g5
I0
sg6
S'Unspecified'
p1340
sg8
S'Green Tree Frog'
p1341
sg10
(lp1342
I12
aI21
aI222
aI216
asg12
I0
sasS'GoldenPoisonDartFrog352'
p1343
(lp1344
(dp1345
g5
I0
sg6
S'Unspecified'
p1346
sg8
S'Golden Poison Dart Frog'
p1347
sg10
(lp1348
I59
aI61
aI125
aI163
asg12
I0
sasS'GBF247'
p1349
(lp1350
(dp1351
g5
I0
sg6
S'Unspecified'
p1352
sg8
S'Great Barred Frog'
p1353
sg10
(lp1354
I14
aI3
aI224
aI204
asg12
I1
sasS'corroboreefrog708'
p1355
(lp1356
(dp1357
g5
I0
sg6
S'Unspecified'
p1358
sg8
S'Corroboree Frog'
p1359
sg10
(lp1360
I78
aI76
aI136
aI122
asg12
I0
sasS'corroboreefrog709'
p1361
(lp1362
(dp1363
g5
I0
sg6
S'Unspecified'
p1364
sg8
S'Corroboree Frog'
p1365
sg10
(lp1366
I19
aI50
aI177
aI173
asg12
I0
sasS'GoldenPoisonDartFrog150'
p1367
(lp1368
(dp1369
g5
I0
sg6
S'Unspecified'
p1370
sg8
S'Golden Poison Dart Frog'
p1371
sg10
(lp1372
I76
aI79
aI136
aI162
asg12
I0
sasS'GoldenPoisonDartFrog563'
p1373
(lp1374
(dp1375
g5
I0
sg6
S'Unspecified'
p1376
sg8
S'Golden Poison Dart Frog'
p1377
sg10
(lp1378
I34
aI27
aI200
aI191
asg12
I0
sasS'CaneToad1,036'
p1379
(lp1380
(dp1381
g5
I0
sg6
S'Unspecified'
p1382
sg8
S'CaneToad'
p1383
sg10
(lp1384
I8
aI18
aI224
aI202
asg12
I1
sasS'corroboreefrog700'
p1385
(lp1386
(dp1387
g5
I0
sg6
S'Unspecified'
p1388
sg8
S'Corroboree Frog'
p1389
sg10
(lp1390
I54
aI32
aI183
aI142
asg12
I0
sasS'corroboreefrog702'
p1391
(lp1392
(dp1393
g5
I0
sg6
S'Unspecified'
p1394
sg8
S'Corroboree Frog'
p1395
sg10
(lp1396
I72
aI66
aI139
aI120
asg12
I0
sasS'556'
p1397
(lp1398
(dp1399
g5
I0
sg6
S'Unspecified'
p1400
sg8
S'Blue Mountains Tree Frog'
p1401
sg10
(lp1402
I9
aI78
aI222
aI187
asg12
I0
sasS'GBF736'
p1403
(lp1404
(dp1405
g5
I0
sg6
S'Unspecified'
p1406
sg8
S'Great Barred Frog'
p1407
sg10
(lp1408
I35
aI9
aI190
aI169
asg12
I0
sasS'GoldenPoisonDartFrog443'
p1409
(lp1410
(dp1411
g5
I0
sg6
S'Unspecified'
p1412
sg8
S'Golden Poison Dart Frog'
p1413
sg10
(lp1414
I49
aI4
aI179
aI218
asg12
I0
sasS'GoldenPoisonDartFrog442'
p1415
(lp1416
(dp1417
g5
I0
sg6
S'Unspecified'
p1418
sg8
S'Golden Poison Dart Frog'
p1419
sg10
(lp1420
I49
aI22
aI172
aI191
asg12
I0
sasS'CaneToad2,136'
p1421
(lp1422
(dp1423
g5
I0
sg6
S'Unspecified'
p1424
sg8
S'CaneToad'
p1425
sg10
(lp1426
I27
aI9
aI170
aI218
asg12
I0
sasS'GGBF122'
p1427
(lp1428
(dp1429
g5
I0
sg6
S'Unspecified'
p1430
sg8
S'Green And Golden Bell Frog'
p1431
sg10
(lp1432
I63
aI51
aI160
aI142
asg12
I0
sasS'greetreefrog1779'
p1433
(lp1434
(dp1435
g5
I0
sg6
S'Unspecified'
p1436
sg8
S'Green Tree Frog'
p1437
sg10
(lp1438
I33
aI23
aI193
aI171
asg12
I0
sasS'RedCrownedToadlet624'
p1439
(lp1440
(dp1441
g5
I0
sg6
S'Unspecified'
p1442
sg8
S'Red Crowned Toadlet'
p1443
sg10
(lp1444
I22
aI3
aI206
aI177
asg12
I0
sasS'GoldenPoisonDartFrog155'
p1445
(lp1446
(dp1447
g5
I0
sg6
S'Unspecified'
p1448
sg8
S'Golden Poison Dart Frog'
p1449
sg10
(lp1450
I23
aI18
aI208
aI172
asg12
I0
sasS'234'
p1451
(lp1452
(dp1453
g5
I0
sg6
S'Unspecified'
p1454
sg8
S'Blue Mountains Tree Frog'
p1455
sg10
(lp1456
I17
aI34
aI211
aI183
asg12
I0
sasS'corroboreefrog1652'
p1457
(lp1458
(dp1459
g5
I0
sg6
S'Unspecified'
p1460
sg8
S'Corroboree Frog'
p1461
sg10
(lp1462
I25
aI87
aI202
aI170
asg12
I0
sasS'BluePoisonDartFrog135'
p1463
(lp1464
(dp1465
g5
I0
sg6
S'Unspecified'
p1466
sg8
S'Blue Poison Dart Frog'
p1467
sg10
(lp1468
I1
aI12
aI212
aI215
asg12
I1
sasS'BluePoisonDartFrog644'
p1469
(lp1470
(dp1471
g5
I0
sg6
S'Unspecified'
p1472
sg8
S'Blue Poison Dart Frog'
p1473
sg10
(lp1474
I51
aI74
aI166
aI196
asg12
I0
sasS'RedEyed344'
p1475
(lp1476
(dp1477
g5
I0
sg6
S'Unspecified'
p1478
sg8
S'Red Eyed Tree Frog'
p1479
sg10
(lp1480
I96
aI51
aI180
aI115
asg12
I0
sasS'233'
p1481
(lp1482
(dp1483
g5
I0
sg6
S'Unspecified'
p1484
sg8
S'Blue Mountains Tree Frog'
p1485
sg10
(lp1486
I45
aI8
aI182
aI206
asg12
I0
sasS'1050'
p1487
(lp1488
(dp1489
g5
I0
sg6
S'Unspecified'
p1490
sg8
S'Blue Mountains Tree Frog'
p1491
sg10
(lp1492
I21
aI45
aI224
aI195
asg12
I1
sasS'RedCrownedToadlet49'
p1493
(lp1494
(dp1495
g5
I0
sg6
S'Unspecified'
p1496
sg8
S'Red Crowned Toadlet'
p1497
sg10
(lp1498
I1
aI26
aI216
aI203
asg12
I1
sasS'BluePoisonDartFrog643'
p1499
(lp1500
(dp1501
g5
I0
sg6
S'Unspecified'
p1502
sg8
S'Blue Poison Dart Frog'
p1503
sg10
(lp1504
I16
aI26
aI189
aI218
asg12
I0
sasS'1057'
p1505
(lp1506
(dp1507
g5
I0
sg6
S'Unspecified'
p1508
sg8
S'Blue Mountains Tree Frog'
p1509
sg10
(lp1510
I25
aI40
aI216
aI184
asg12
I0
sasS'BluePoisonDartFrog75'
p1511
(lp1512
(dp1513
g5
I0
sg6
S'Unspecified'
p1514
sg8
S'Blue Poison Dart Frog'
p1515
sg10
(lp1516
I3
aI61
aI156
aI219
asg12
I0
sasS'BluePoisonDartFrog76'
p1517
(lp1518
(dp1519
g5
I0
sg6
S'Unspecified'
p1520
sg8
S'Blue Poison Dart Frog'
p1521
sg10
(lp1522
I23
aI8
aI216
aI85
asg12
I0
sasS'1195'
p1523
(lp1524
(dp1525
g5
I0
sg6
S'Unspecified'
p1526
sg8
S'Blue Mountains Tree Frog'
p1527
sg10
(lp1528
I9
aI11
aI214
aI209
asg12
I0
sasS'RedCrownedToadlet46'
p1529
(lp1530
(dp1531
g5
I0
sg6
S'Unspecified'
p1532
sg8
S'Red Crowned Toadlet'
p1533
sg10
(lp1534
I62
aI43
aI172
aI188
asg12
I0
sasS'RedCrownedToadlet45'
p1535
(lp1536
(dp1537
g5
I0
sg6
S'Unspecified'
p1538
sg8
S'Red Crowned Toadlet'
p1539
sg10
(lp1540
I29
aI28
aI215
aI144
asg12
I0
sasS'1196'
p1541
(lp1542
(dp1543
g5
I0
sg6
S'Unspecified'
p1544
sg8
S'Blue Mountains Tree Frog'
p1545
sg10
(lp1546
I31
aI36
aI200
aI184
asg12
I0
sasS'RedEyed294'
p1547
(lp1548
(dp1549
g5
I0
sg6
S'Unspecified'
p1550
sg8
S'Red Eyed Tree Frog'
p1551
sg10
(lp1552
I42
aI65
aI155
aI179
asg12
I0
sasS'RedEyed293'
p1553
(lp1554
(dp1555
g5
I0
sg6
S'Unspecified'
p1556
sg8
S'Red Eyed Tree Frog'
p1557
sg10
(lp1558
I36
aI32
aI192
aI198
asg12
I0
sasS'greetreefrog1041'
p1559
(lp1560
(dp1561
g5
I0
sg6
S'Unspecified'
p1562
sg8
S'Green Tree Frog'
p1563
sg10
(lp1564
I58
aI15
aI159
aI185
asg12
I0
sasS'1755'
p1565
(lp1566
(dp1567
g5
I0
sg6
S'Unspecified'
p1568
sg8
S'Blue Mountains Tree Frog'
p1569
sg10
(lp1570
I48
aI43
aI200
aI158
asg12
I0
sasS'greetreefrog131'
p1571
(lp1572
(dp1573
g5
I0
sg6
S'Unspecified'
p1574
sg8
S'Green Tree Frog'
p1575
sg10
(lp1576
I12
aI31
aI213
aI182
asg12
I0
sasS'1698'
p1577
(lp1578
(dp1579
g5
I0
sg6
S'Unspecified'
p1580
sg8
S'Blue Mountains Tree Frog'
p1581
sg10
(lp1582
I40
aI21
aI212
aI175
asg12
I0
sasS'RedCrownedToadlet849'
p1583
(lp1584
(dp1585
g5
I0
sg6
S'Unspecified'
p1586
sg8
S'Red Crowned Toadlet'
p1587
sg10
(lp1588
I12
aI35
aI186
aI194
asg12
I0
sasS'147'
p1589
(lp1590
(dp1591
g5
I0
sg6
S'Unspecified'
p1592
sg8
S'Blue Mountains Tree Frog'
p1593
sg10
(lp1594
I1
aI36
aI184
aI221
asg12
I1
sasS'1175'
p1595
(lp1596
(dp1597
g5
I0
sg6
S'Unspecified'
p1598
sg8
S'Blue Mountains Tree Frog'
p1599
sg10
(lp1600
I16
aI3
aI224
aI220
asg12
I1
sasS'GoldenPoisonDartFrog693'
p1601
(lp1602
(dp1603
g5
I0
sg6
S'Unspecified'
p1604
sg8
S'Golden Poison Dart Frog'
p1605
sg10
(lp1606
I85
aI2
aI213
aI208
asg12
I0
sasS'GoldenPoisonDartFrog694'
p1607
(lp1608
(dp1609
g5
I0
sg6
S'Unspecified'
p1610
sg8
S'Golden Poison Dart Frog'
p1611
sg10
(lp1612
I27
aI1
aI191
aI216
asg12
I1
sasS'CaneToad1,863'
p1613
(lp1614
(dp1615
g5
I0
sg6
S'Unspecified'
p1616
sg8
S'CaneToad'
p1617
sg10
(lp1618
I34
aI18
aI192
aI224
asg12
I1
sasS'CaneToad1,862'
p1619
(lp1620
(dp1621
g5
I0
sg6
S'Unspecified'
p1622
sg8
S'CaneToad'
p1623
sg10
(lp1624
I47
aI47
aI197
aI201
asg12
I0
sasS'1272'
p1625
(lp1626
(dp1627
g5
I0
sg6
S'Unspecified'
p1628
sg8
S'Blue Mountains Tree Frog'
p1629
sg10
(lp1630
I20
aI1
aI205
aI199
asg12
I1
sasS'GoldenPoisonDartFrog462'
p1631
(lp1632
(dp1633
g5
I0
sg6
S'Unspecified'
p1634
sg8
S'Golden Poison Dart Frog'
p1635
sg10
(lp1636
I46
aI51
aI150
aI192
asg12
I0
sasS'CaneToad1,721'
p1637
(lp1638
(dp1639
g5
I0
sg6
S'Unspecified'
p1640
sg8
S'CaneToad'
p1641
sg10
(lp1642
I14
aI27
aI221
aI200
asg12
I0
sasS'CaneToad1,865'
p1643
(lp1644
(dp1645
g5
I0
sg6
S'Unspecified'
p1646
sg8
S'CaneToad'
p1647
sg10
(lp1648
I14
aI53
aI213
aI206
asg12
I0
sasS'RedCrownedToadlet434'
p1649
(lp1650
(dp1651
g5
I0
sg6
S'Unspecified'
p1652
sg8
S'Red Crowned Toadlet'
p1653
sg10
(lp1654
I51
aI63
aI223
aI192
asg12
I0
sasS'GBF665'
p1655
(lp1656
(dp1657
g5
I0
sg6
S'Unspecified'
p1658
sg8
S'Great Barred Frog'
p1659
sg10
(lp1660
I3
aI13
aI188
aI167
asg12
I0
sasS'GGBF394'
p1661
(lp1662
(dp1663
g5
I0
sg6
S'Unspecified'
p1664
sg8
S'Green And Golden Bell Frog'
p1665
sg10
(lp1666
I52
aI41
aI174
aI181
asg12
I0
sasS'CaneToad1,049'
p1667
(lp1668
(dp1669
g5
I0
sg6
S'Unspecified'
p1670
sg8
S'CaneToad'
p1671
sg10
(lp1672
I12
aI8
aI204
aI194
asg12
I0
sasS'1882'
p1673
(lp1674
(dp1675
g5
I0
sg6
S'Unspecified'
p1676
sg8
S'Blue Mountains Tree Frog'
p1677
sg10
(lp1678
I38
aI20
aI217
aI211
asg12
I0
sasS'1881'
p1679
(lp1680
(dp1681
g5
I0
sg6
S'Unspecified'
p1682
sg8
S'Blue Mountains Tree Frog'
p1683
sg10
(lp1684
I21
aI38
aI205
aI215
asg12
I0
sasS'GGBF633'
p1685
(lp1686
(dp1687
g5
I0
sg6
S'Unspecified'
p1688
sg8
S'Green And Golden Bell Frog'
p1689
sg10
(lp1690
I15
aI21
aI172
aI185
asg12
I0
sasS'greetreefrog1884'
p1691
(lp1692
(dp1693
g5
I0
sg6
S'Unspecified'
p1694
sg8
S'Green Tree Frog'
p1695
sg10
(lp1696
I22
aI24
aI164
aI203
asg12
I0
sasS'GGBF408'
p1697
(lp1698
(dp1699
g5
I0
sg6
S'Unspecified'
p1700
sg8
S'Green And Golden Bell Frog'
p1701
sg10
(lp1702
I32
aI80
aI108
aI168
asg12
I0
sasS'947'
p1703
(lp1704
(dp1705
g5
I0
sg6
S'Unspecified'
p1706
sg8
S'Blue Mountains Tree Frog'
p1707
sg10
(lp1708
I47
aI116
aI189
aI196
asg12
I0
sasS'GGBF155'
p1709
(lp1710
(dp1711
g5
I0
sg6
S'Unspecified'
p1712
sg8
S'Green And Golden Bell Frog'
p1713
sg10
(lp1714
I29
aI45
aI198
aI194
asg12
I0
sasS'GGBF154'
p1715
(lp1716
(dp1717
g5
I0
sg6
S'Unspecified'
p1718
sg8
S'Green And Golden Bell Frog'
p1719
sg10
(lp1720
I61
aI55
aI197
aI196
asg12
I0
sasS'2086'
p1721
(lp1722
(dp1723
g5
I0
sg6
S'Unspecified'
p1724
sg8
S'Blue Mountains Tree Frog'
p1725
sg10
(lp1726
I32
aI7
aI194
aI150
asg12
I0
sasS'1288'
p1727
(lp1728
(dp1729
g5
I0
sg6
S'Unspecified'
p1730
sg8
S'Blue Mountains Tree Frog'
p1731
sg10
(lp1732
I32
aI30
aI156
aI119
asg12
I0
sa(dp1733
g5
I0
sg6
S'Unspecified'
p1734
sg8
S'Blue Mountains Tree Frog'
p1735
sg10
(lp1736
I18
aI48
aI187
aI188
asg12
I0
sasS'940'
p1737
(lp1738
(dp1739
g5
I0
sg6
S'Unspecified'
p1740
sg8
S'Blue Mountains Tree Frog'
p1741
sg10
(lp1742
I1
aI1
aI210
aI223
asg12
I1
sasS'GoldenPoisonDartFrog1037'
p1743
(lp1744
(dp1745
g5
I0
sg6
S'Unspecified'
p1746
sg8
S'Golden Poison Dart Frog'
p1747
sg10
(lp1748
I37
aI12
aI184
aI199
asg12
I0
sasS'GoldenPoisonDartFrog362'
p1749
(lp1750
(dp1751
g5
I0
sg6
S'Unspecified'
p1752
sg8
S'Golden Poison Dart Frog'
p1753
sg10
(lp1754
I42
aI59
aI180
aI186
asg12
I0
sasS'greetreefrog1616'
p1755
(lp1756
(dp1757
g5
I0
sg6
S'Unspecified'
p1758
sg8
S'Green Tree Frog'
p1759
sg10
(lp1760
I74
aI56
aI162
aI141
asg12
I0
sasS'GoldenPoisonDartFrog364'
p1761
(lp1762
(dp1763
g5
I0
sg6
S'Unspecified'
p1764
sg8
S'Golden Poison Dart Frog'
p1765
sg10
(lp1766
I30
aI1
aI196
aI203
asg12
I1
sasS'GGBF216'
p1767
(lp1768
(dp1769
g5
I0
sg6
S'Unspecified'
p1770
sg8
S'Green And Golden Bell Frog'
p1771
sg10
(lp1772
I26
aI68
aI224
aI215
asg12
I1
sasS'greetreefrog1612'
p1773
(lp1774
(dp1775
g5
I0
sg6
S'Unspecified'
p1776
sg8
S'Green Tree Frog'
p1777
sg10
(lp1778
I56
aI77
aI139
aI162
asg12
I0
sasS'1573'
p1779
(lp1780
(dp1781
g5
I0
sg6
S'Unspecified'
p1782
sg8
S'Blue Mountains Tree Frog'
p1783
sg10
(lp1784
I63
aI42
aI174
aI188
asg12
I0
sasS'GoldenPoisonDartFrog369'
p1785
(lp1786
(dp1787
g5
I0
sg6
S'Unspecified'
p1788
sg8
S'Golden Poison Dart Frog'
p1789
sg10
(lp1790
I66
aI53
aI201
aI222
asg12
I0
sasS'VietnameseMossy676'
p1791
(lp1792
(dp1793
g5
I0
sg6
S'Unspecified'
p1794
sg8
S'Vietnamese Mossy Forg'
p1795
sg10
(lp1796
I15
aI22
aI154
aI200
asg12
I0
sasS'CaneToad1,913'
p1797
(lp1798
(dp1799
g5
I0
sg6
S'Unspecified'
p1800
sg8
S'CaneToad'
p1801
sg10
(lp1802
I11
aI48
aI139
aI210
asg12
I0
sasS'greetreefrog1593'
p1803
(lp1804
(dp1805
g5
I0
sg6
S'Unspecified'
p1806
sg8
S'Green Tree Frog'
p1807
sg10
(lp1808
I79
aI95
aI154
aI155
asg12
I0
sa(dp1809
g5
I0
sg6
S'Unspecified'
p1810
sg8
S'Green Tree Frog'
p1811
sg10
(lp1812
I13
aI99
aI72
aI138
asg12
I0
sa(dp1813
g5
I0
sg6
S'Unspecified'
p1814
sg8
S'Green Tree Frog'
p1815
sg10
(lp1816
I99
aI150
aI165
aI204
asg12
I0
sasS'CaneToad1,910'
p1817
(lp1818
(dp1819
g5
I0
sg6
S'Unspecified'
p1820
sg8
S'CaneToad'
p1821
sg10
(lp1822
I33
aI4
aI172
aI220
asg12
I0
sasS'corroboreefrog717'
p1823
(lp1824
(dp1825
g5
I0
sg6
S'Unspecified'
p1826
sg8
S'Corroboree Frog'
p1827
sg10
(lp1828
I56
aI50
aI195
aI158
asg12
I0
sasS'BluePoisonDartFrog1409'
p1829
(lp1830
(dp1831
g5
I0
sg6
S'Unspecified'
p1832
sg8
S'Blue Poison Dart Frog'
p1833
sg10
(lp1834
I26
aI59
aI168
aI223
asg12
I0
sasS'1307'
p1835
(lp1836
(dp1837
g5
I0
sg6
S'Unspecified'
p1838
sg8
S'Blue Mountains Tree Frog'
p1839
sg10
(lp1840
I33
aI25
aI205
aI190
asg12
I0
sasS'BluePoisonDartFrog824'
p1841
(lp1842
(dp1843
g5
I0
sg6
S'Unspecified'
p1844
sg8
S'Blue Poison Dart Frog'
p1845
sg10
(lp1846
I2
aI21
aI195
aI189
asg12
I0
sasS'GoldenPoisonDartFrog1195'
p1847
(lp1848
(dp1849
g5
I0
sg6
S'Unspecified'
p1850
sg8
S'Golden Poison Dart Frog'
p1851
sg10
(lp1852
I61
aI59
aI161
aI179
asg12
I0
sasS'VietnameseMossy778'
p1853
(lp1854
(dp1855
g5
I0
sg6
S'Unspecified'
p1856
sg8
S'Vietnamese Mossy Forg'
p1857
sg10
(lp1858
I32
aI32
aI205
aI218
asg12
I0
sasS'GoldenPoisonDartFrog1052'
p1859
(lp1860
(dp1861
g5
I0
sg6
S'Unspecified'
p1862
sg8
S'Golden Poison Dart Frog'
p1863
sg10
(lp1864
I77
aI44
aI174
aI155
asg12
I0
sasS'GGBF787'
p1865
(lp1866
(dp1867
g5
I0
sg6
S'Unspecified'
p1868
sg8
S'Green And Golden Bell Frog'
p1869
sg10
(lp1870
I45
aI39
aI212
aI199
asg12
I0
sasS'RedCrownedToadlet752'
p1871
(lp1872
(dp1873
g5
I0
sg6
S'Unspecified'
p1874
sg8
S'Red Crowned Toadlet'
p1875
sg10
(lp1876
I51
aI52
aI197
aI180
asg12
I0
sasS'RedCrownedToadlet88'
p1877
(lp1878
(dp1879
g5
I0
sg6
S'Unspecified'
p1880
sg8
S'Red Crowned Toadlet'
p1881
sg10
(lp1882
I1
aI1
aI125
aI221
asg12
I1
sasS'GGBF782'
p1883
(lp1884
(dp1885
g5
I0
sg6
S'Unspecified'
p1886
sg8
S'Green And Golden Bell Frog'
p1887
sg10
(lp1888
I8
aI10
aI224
aI216
asg12
I1
sasS'GGBF783'
p1889
(lp1890
(dp1891
g5
I0
sg6
S'Unspecified'
p1892
sg8
S'Green And Golden Bell Frog'
p1893
sg10
(lp1894
I27
aI37
aI166
aI181
asg12
I0
sasS'GGBF780'
p1895
(lp1896
(dp1897
g5
I0
sg6
S'Unspecified'
p1898
sg8
S'Green And Golden Bell Frog'
p1899
sg10
(lp1900
I26
aI22
aI194
aI201
asg12
I0
sasS'BluePoisonDartFrog456'
p1901
(lp1902
(dp1903
g5
I0
sg6
S'Unspecified'
p1904
sg8
S'Blue Poison Dart Frog'
p1905
sg10
(lp1906
I51
aI50
aI184
aI188
asg12
I0
sasS'GBF590'
p1907
(lp1908
(dp1909
g5
I0
sg6
S'Unspecified'
p1910
sg8
S'Great Barred Frog'
p1911
sg10
(lp1912
I1
aI11
aI224
aI219
asg12
I1
sasS'GBF593'
p1913
(lp1914
(dp1915
g5
I0
sg6
S'Unspecified'
p1916
sg8
S'Great Barred Frog'
p1917
sg10
(lp1918
I38
aI15
aI224
aI163
asg12
I1
sasS'CaneToad1,262'
p1919
(lp1920
(dp1921
g5
I0
sg6
S'Unspecified'
p1922
sg8
S'CaneToad'
p1923
sg10
(lp1924
I15
aI19
aI209
aI187
asg12
I0
sasS'GBF162'
p1925
(lp1926
(dp1927
g5
I0
sg6
S'Unspecified'
p1928
sg8
S'Great Barred Frog'
p1929
sg10
(lp1930
I32
aI28
aI180
aI218
asg12
I0
sasS'RedCrownedToadlet346'
p1931
(lp1932
(dp1933
g5
I0
sg6
S'Unspecified'
p1934
sg8
S'Red Crowned Toadlet'
p1935
sg10
(lp1936
I97
aI85
aI161
aI152
asg12
I0
sasS'GGBF40'
p1937
(lp1938
(dp1939
g5
I0
sg6
S'Unspecified'
p1940
sg8
S'Green And Golden Bell Frog'
p1941
sg10
(lp1942
I2
aI9
aI217
aI217
asg12
I0
sasS'GGBF47'
p1943
(lp1944
(dp1945
g5
I0
sg6
S'Unspecified'
p1946
sg8
S'Green And Golden Bell Frog'
p1947
sg10
(lp1948
I33
aI39
aI191
aI182
asg12
I0
sasS'RedCrownedToadlet858'
p1949
(lp1950
(dp1951
g5
I0
sg6
S'Unspecified'
p1952
sg8
S'Red Crowned Toadlet'
p1953
sg10
(lp1954
I55
aI20
aI180
aI190
asg12
I0
sasS'26'
p1955
(lp1956
(dp1957
g5
I0
sg6
S'Unspecified'
p1958
sg8
S'Blue Mountains Tree Frog'
p1959
sg10
(lp1960
I1
aI24
aI192
aI160
asg12
I1
sasS'corroboreefrog999'
p1961
(lp1962
(dp1963
g5
I0
sg6
S'Unspecified'
p1964
sg8
S'Corroboree Frog'
p1965
sg10
(lp1966
I4
aI9
aI198
aI223
asg12
I0
sasS'RedCrownedToadlet38'
p1967
(lp1968
(dp1969
g5
I0
sg6
S'Unspecified'
p1970
sg8
S'Red Crowned Toadlet'
p1971
sg10
(lp1972
I1
aI58
aI148
aI223
asg12
I1
sasS'22'
p1973
(lp1974
(dp1975
g5
I0
sg6
S'Unspecified'
p1976
sg8
S'Blue Mountains Tree Frog'
p1977
sg10
(lp1978
I118
aI88
aI175
aI161
asg12
I0
sasS'VietnameseMossy489'
p1979
(lp1980
(dp1981
g5
I0
sg6
S'Unspecified'
p1982
sg8
S'Vietnamese Mossy Forg'
p1983
sg10
(lp1984
I17
aI48
aI201
aI208
asg12
I0
sasS'corroboreefrog995'
p1985
(lp1986
(dp1987
g5
I0
sg6
S'Unspecified'
p1988
sg8
S'Corroboree Frog'
p1989
sg10
(lp1990
I106
aI18
aI175
aI101
asg12
I0
sa(dp1991
g5
I0
sg6
S'Unspecified'
p1992
sg8
S'Corroboree Frog'
p1993
sg10
(lp1994
I125
aI103
aI188
aI203
asg12
I0
sasS'GoldenPoisonDartFrog744'
p1995
(lp1996
(dp1997
g5
I0
sg6
S'Unspecified'
p1998
sg8
S'Golden Poison Dart Frog'
p1999
sg10
(lp2000
I4
aI8
aI204
aI223
asg12
I0
sasS'GoldenPoisonDartFrog891'
p2001
(lp2002
(dp2003
g5
I0
sg6
S'Unspecified'
p2004
sg8
S'Golden Poison Dart Frog'
p2005
sg10
(lp2006
I88
aI61
aI179
aI188
asg12
I0
sasS'GoldenPoisonDartFrog966'
p2007
(lp2008
(dp2009
g5
I0
sg6
S'Unspecified'
p2010
sg8
S'Golden Poison Dart Frog'
p2011
sg10
(lp2012
I42
aI41
aI172
aI170
asg12
I0
sasS'GoldenPoisonDartFrog743'
p2013
(lp2014
(dp2015
g5
I0
sg6
S'Unspecified'
p2016
sg8
S'Golden Poison Dart Frog'
p2017
sg10
(lp2018
I150
aI48
aI224
aI173
asg12
I1
sasS'corroboreefrog992'
p2019
(lp2020
(dp2021
g5
I0
sg6
S'Unspecified'
p2022
sg8
S'Corroboree Frog'
p2023
sg10
(lp2024
I46
aI12
aI117
aI106
asg12
I0
sa(dp2025
g5
I0
sg6
S'Unspecified'
p2026
sg8
S'Corroboree Frog'
p2027
sg10
(lp2028
I34
aI104
aI102
aI202
asg12
I0
sasS'GBF348'
p2029
(lp2030
(dp2031
g5
I0
sg6
S'Unspecified'
p2032
sg8
S'Great Barred Frog'
p2033
sg10
(lp2034
I26
aI53
aI194
aI196
asg12
I0
sasS'1340'
p2035
(lp2036
(dp2037
g5
I0
sg6
S'Unspecified'
p2038
sg8
S'Blue Mountains Tree Frog'
p2039
sg10
(lp2040
I31
aI66
aI127
aI198
asg12
I0
sa(dp2041
g5
I0
sg6
S'Unspecified'
p2042
sg8
S'Blue Mountains Tree Frog'
p2043
sg10
(lp2044
I57
aI19
aI191
aI201
asg12
I0
sasS'greetreefrog1318'
p2045
(lp2046
(dp2047
g5
I0
sg6
S'Unspecified'
p2048
sg8
S'Green Tree Frog'
p2049
sg10
(lp2050
I10
aI42
aI217
aI194
asg12
I0
sasS'GoldenPoisonDartFrog620'
p2051
(lp2052
(dp2053
g5
I0
sg6
S'Unspecified'
p2054
sg8
S'Golden Poison Dart Frog'
p2055
sg10
(lp2056
I16
aI6
aI158
aI224
asg12
I1
sasS'BluePoisonDartFrog1215'
p2057
(lp2058
(dp2059
g5
I0
sg6
S'Unspecified'
p2060
sg8
S'Blue Poison Dart Frog'
p2061
sg10
(lp2062
I58
aI45
aI168
aI185
asg12
I0
sasS'GGBF713'
p2063
(lp2064
(dp2065
g5
I0
sg6
S'Unspecified'
p2066
sg8
S'Green And Golden Bell Frog'
p2067
sg10
(lp2068
I47
aI52
aI187
aI176
asg12
I0
sasS'GoldenPoisonDartFrog180'
p2069
(lp2070
(dp2071
g5
I0
sg6
S'Unspecified'
p2072
sg8
S'Golden Poison Dart Frog'
p2073
sg10
(lp2074
I19
aI69
aI161
aI165
asg12
I0
sasS'greetreefrog1311'
p2075
(lp2076
(dp2077
g5
I0
sg6
S'Unspecified'
p2078
sg8
S'Green Tree Frog'
p2079
sg10
(lp2080
I47
aI35
aI199
aI175
asg12
I0
sasS'GoldenPoisonDartFrog16'
p2081
(lp2082
(dp2083
g5
I0
sg6
S'Unspecified'
p2084
sg8
S'Golden Poison Dart Frog'
p2085
sg10
(lp2086
I27
aI40
aI187
aI170
asg12
I0
sasS'VietnameseMossy482'
p2087
(lp2088
(dp2089
g5
I0
sg6
S'Unspecified'
p2090
sg8
S'Vietnamese Mossy Forg'
p2091
sg10
(lp2092
I26
aI29
aI157
aI192
asg12
I0
sasS'GGBF706'
p2093
(lp2094
(dp2095
g5
I0
sg6
S'Unspecified'
p2096
sg8
S'Green And Golden Bell Frog'
p2097
sg10
(lp2098
I28
aI11
aI200
aI182
asg12
I0
sasS'corroboreefrog1856'
p2099
(lp2100
(dp2101
g5
I0
sg6
S'Unspecified'
p2102
sg8
S'Corroboree Frog'
p2103
sg10
(lp2104
I39
aI17
aI177
aI197
asg12
I0
sasS'RedCrownedToadlet39'
p2105
(lp2106
(dp2107
g5
I0
sg6
S'Unspecified'
p2108
sg8
S'Red Crowned Toadlet'
p2109
sg10
(lp2110
I6
aI101
aI128
aI210
asg12
I0
sasS'RedEyed944'
p2111
(lp2112
(dp2113
g5
I0
sg6
S'Unspecified'
p2114
sg8
S'Red Eyed Tree Frog'
p2115
sg10
(lp2116
I44
aI54
aI124
aI199
asg12
I0
sasS'GoldenPoisonDartFrog823'
p2117
(lp2118
(dp2119
g5
I0
sg6
S'Unspecified'
p2120
sg8
S'Golden Poison Dart Frog'
p2121
sg10
(lp2122
I68
aI13
aI202
aI192
asg12
I0
sasS'GGBF871'
p2123
(lp2124
(dp2125
g5
I0
sg6
S'Unspecified'
p2126
sg8
S'Green And Golden Bell Frog'
p2127
sg10
(lp2128
I60
aI99
aI158
aI176
asg12
I0
sasS'GGBF874'
p2129
(lp2130
(dp2131
g5
I0
sg6
S'Unspecified'
p2132
sg8
S'Green And Golden Bell Frog'
p2133
sg10
(lp2134
I46
aI6
aI178
aI224
asg12
I1
sasS'GoldenPoisonDartFrog989'
p2135
(lp2136
(dp2137
g5
I0
sg6
S'Unspecified'
p2138
sg8
S'Golden Poison Dart Frog'
p2139
sg10
(lp2140
I28
aI68
aI209
aI190
asg12
I0
sasS'1954'
p2141
(lp2142
(dp2143
g5
I0
sg6
S'Unspecified'
p2144
sg8
S'Blue Mountains Tree Frog'
p2145
sg10
(lp2146
I27
aI31
aI207
aI202
asg12
I0
sasS'GoldenPoisonDartFrog398'
p2147
(lp2148
(dp2149
g5
I0
sg6
S'Unspecified'
p2150
sg8
S'Golden Poison Dart Frog'
p2151
sg10
(lp2152
I112
aI59
aI197
aI198
asg12
I0
sasS'RedEyed169'
p2153
(lp2154
(dp2155
g5
I0
sg6
S'Unspecified'
p2156
sg8
S'Red Eyed Tree Frog'
p2157
sg10
(lp2158
I53
aI18
aI196
aI217
asg12
I0
sasS'CaneToad1,465'
p2159
(lp2160
(dp2161
g5
I0
sg6
S'Unspecified'
p2162
sg8
S'CaneToad'
p2163
sg10
(lp2164
I1
aI26
aI205
aI194
asg12
I1
sasS'greetreefrog62'
p2165
(lp2166
(dp2167
g5
I0
sg6
S'Unspecified'
p2168
sg8
S'Green Tree Frog'
p2169
sg10
(lp2170
I12
aI53
aI133
aI203
asg12
I0
sasS'GGBF703'
p2171
(lp2172
(dp2173
g5
I0
sg6
S'Unspecified'
p2174
sg8
S'Green And Golden Bell Frog'
p2175
sg10
(lp2176
I21
aI6
aI219
aI171
asg12
I0
sasS'CaneToad1,507'
p2177
(lp2178
(dp2179
g5
I0
sg6
S'Unspecified'
p2180
sg8
S'CaneToad'
p2181
sg10
(lp2182
I16
aI1
aI208
aI224
asg12
I1
sasS'GBF289'
p2183
(lp2184
(dp2185
g5
I0
sg6
S'Unspecified'
p2186
sg8
S'Great Barred Frog'
p2187
sg10
(lp2188
I21
aI32
aI179
aI196
asg12
I0
sasS'GBF521'
p2189
(lp2190
(dp2191
g5
I0
sg6
S'Unspecified'
p2192
sg8
S'Great Barred Frog'
p2193
sg10
(lp2194
I20
aI1
aI196
aI181
asg12
I1
sasS'GBF285'
p2195
(lp2196
(dp2197
g5
I0
sg6
S'Unspecified'
p2198
sg8
S'Great Barred Frog'
p2199
sg10
(lp2200
I50
aI35
aI198
aI190
asg12
I0
sasS'CaneToad1,509'
p2201
(lp2202
(dp2203
g5
I0
sg6
S'Unspecified'
p2204
sg8
S'CaneToad'
p2205
sg10
(lp2206
I2
aI32
aI219
aI180
asg12
I0
sasS'RedEyed851'
p2207
(lp2208
(dp2209
g5
I0
sg6
S'Unspecified'
p2210
sg8
S'Red Eyed Tree Frog'
p2211
sg10
(lp2212
I56
aI27
aI177
aI137
asg12
I0
sasS'greetreefrog736'
p2213
(lp2214
(dp2215
g5
I0
sg6
S'Unspecified'
p2216
sg8
S'Green Tree Frog'
p2217
sg10
(lp2218
I45
aI5
aI175
aI114
asg12
I0
sasS'corroboreefrog195'
p2219
(lp2220
(dp2221
g5
I0
sg6
S'Unspecified'
p2222
sg8
S'Corroboree Frog'
p2223
sg10
(lp2224
I18
aI52
aI174
aI123
asg12
I0
sasS'greetreefrog245'
p2225
(lp2226
(dp2227
g5
I0
sg6
S'Unspecified'
p2228
sg8
S'Green Tree Frog'
p2229
sg10
(lp2230
I83
aI33
aI194
aI123
asg12
I0
sasS'corroboreefrog197'
p2231
(lp2232
(dp2233
g5
I0
sg6
S'Unspecified'
p2234
sg8
S'Corroboree Frog'
p2235
sg10
(lp2236
I71
aI36
aI133
aI177
asg12
I0
sasS'corroboreefrog196'
p2237
(lp2238
(dp2239
g5
I0
sg6
S'Unspecified'
p2240
sg8
S'Corroboree Frog'
p2241
sg10
(lp2242
I38
aI20
aI200
aI176
asg12
I0
sasS'829'
p2243
(lp2244
(dp2245
g5
I0
sg6
S'Unspecified'
p2246
sg8
S'Blue Mountains Tree Frog'
p2247
sg10
(lp2248
I10
aI2
aI220
aI200
asg12
I0
sasS'BluePoisonDartFrog1498'
p2249
(lp2250
(dp2251
g5
I0
sg6
S'Unspecified'
p2252
sg8
S'Blue Poison Dart Frog'
p2253
sg10
(lp2254
I75
aI73
aI172
aI184
asg12
I0
sasS'GGBF276'
p2255
(lp2256
(dp2257
g5
I0
sg6
S'Unspecified'
p2258
sg8
S'Green And Golden Bell Frog'
p2259
sg10
(lp2260
I4
aI69
aI189
aI158
asg12
I0
sasS'GGBF277'
p2261
(lp2262
(dp2263
g5
I0
sg6
S'Unspecified'
p2264
sg8
S'Green And Golden Bell Frog'
p2265
sg10
(lp2266
I72
aI35
aI204
aI143
asg12
I0
sasS'GBF117'
p2267
(lp2268
(dp2269
g5
I0
sg6
S'Unspecified'
p2270
sg8
S'Great Barred Frog'
p2271
sg10
(lp2272
I7
aI87
aI151
aI224
asg12
I1
sasS'greetreefrog755'
p2273
(lp2274
(dp2275
g5
I0
sg6
S'Unspecified'
p2276
sg8
S'Green Tree Frog'
p2277
sg10
(lp2278
I21
aI3
aI211
aI223
asg12
I0
sasS'BluePoisonDartFrog910'
p2279
(lp2280
(dp2281
g5
I0
sg6
S'Unspecified'
p2282
sg8
S'Blue Poison Dart Frog'
p2283
sg10
(lp2284
I53
aI41
aI168
aI176
asg12
I0
sasS'RedEyed400'
p2285
(lp2286
(dp2287
g5
I0
sg6
S'Unspecified'
p2288
sg8
S'Red Eyed Tree Frog'
p2289
sg10
(lp2290
I28
aI32
aI165
aI148
asg12
I0
sasS'GGBF800'
p2291
(lp2292
(dp2293
g5
I0
sg6
S'Unspecified'
p2294
sg8
S'Green And Golden Bell Frog'
p2295
sg10
(lp2296
I47
aI64
aI196
aI208
asg12
I0
sasS'corroboreefrog583'
p2297
(lp2298
(dp2299
g5
I0
sg6
S'Unspecified'
p2300
sg8
S'Corroboree Frog'
p2301
sg10
(lp2302
I23
aI14
aI210
aI200
asg12
I0
sasS'GoldenPoisonDartFrog222'
p2303
(lp2304
(dp2305
g5
I0
sg6
S'Unspecified'
p2306
sg8
S'Golden Poison Dart Frog'
p2307
sg10
(lp2308
I52
aI24
aI198
aI224
asg12
I1
sasS'GBF844'
p2309
(lp2310
(dp2311
g5
I0
sg6
S'Unspecified'
p2312
sg8
S'Great Barred Frog'
p2313
sg10
(lp2314
I64
aI60
aI177
aI148
asg12
I0
sasS'greetreefrog1008'
p2315
(lp2316
(dp2317
g5
I0
sg6
S'Unspecified'
p2318
sg8
S'Green Tree Frog'
p2319
sg10
(lp2320
I44
aI33
aI172
aI184
asg12
I0
sasS'RedEyed804'
p2321
(lp2322
(dp2323
g5
I0
sg6
S'Unspecified'
p2324
sg8
S'Red Eyed Tree Frog'
p2325
sg10
(lp2326
I38
aI14
aI220
aI110
asg12
I0
sasS'GoldenPoisonDartFrog524'
p2327
(lp2328
(dp2329
g5
I0
sg6
S'Unspecified'
p2330
sg8
S'Golden Poison Dart Frog'
p2331
sg10
(lp2332
I64
aI51
aI156
aI153
asg12
I0
sasS'392'
p2333
(lp2334
(dp2335
g5
I0
sg6
S'Unspecified'
p2336
sg8
S'Blue Mountains Tree Frog'
p2337
sg10
(lp2338
I30
aI24
aI224
aI180
asg12
I1
sasS'RedCrownedToadlet378'
p2339
(lp2340
(dp2341
g5
I0
sg6
S'Unspecified'
p2342
sg8
S'Red Crowned Toadlet'
p2343
sg10
(lp2344
I103
aI1
aI210
aI221
asg12
I1
sasS'corroboreefrog2'
p2345
(lp2346
(dp2347
g5
I0
sg6
S'Unspecified'
p2348
sg8
S'Corroboree Frog'
p2349
sg10
(lp2350
I17
aI1
aI191
aI181
asg12
I1
sasS'397'
p2351
(lp2352
(dp2353
g5
I0
sg6
S'Unspecified'
p2354
sg8
S'Blue Mountains Tree Frog'
p2355
sg10
(lp2356
I16
aI25
aI214
aI223
asg12
I0
sasS'GBF359'
p2357
(lp2358
(dp2359
g5
I0
sg6
S'Unspecified'
p2360
sg8
S'Great Barred Frog'
p2361
sg10
(lp2362
I32
aI34
aI200
aI179
asg12
I0
sasS'greetreefrog969'
p2363
(lp2364
(dp2365
g5
I0
sg6
S'Unspecified'
p2366
sg8
S'Green Tree Frog'
p2367
sg10
(lp2368
I54
aI53
aI160
aI167
asg12
I0
sasS'RedEyed718'
p2369
(lp2370
(dp2371
g5
I0
sg6
S'Unspecified'
p2372
sg8
S'Red Eyed Tree Frog'
p2373
sg10
(lp2374
I11
aI76
aI118
aI194
asg12
I0
sasS'GBF1023'
p2375
(lp2376
(dp2377
g5
I0
sg6
S'Unspecified'
p2378
sg8
S'Great Barred Frog'
p2379
sg10
(lp2380
I46
aI33
aI161
aI176
asg12
I0
sasS'RedEyed803'
p2381
(lp2382
(dp2383
g5
I0
sg6
S'Unspecified'
p2384
sg8
S'Red Eyed Tree Frog'
p2385
sg10
(lp2386
I41
aI48
aI202
aI160
asg12
I0
sasS'1715'
p2387
(lp2388
(dp2389
g5
I0
sg6
S'Unspecified'
p2390
sg8
S'Blue Mountains Tree Frog'
p2391
sg10
(lp2392
I18
aI13
aI191
aI148
asg12
I0
sasS'GBF490'
p2393
(lp2394
(dp2395
g5
I0
sg6
S'Unspecified'
p2396
sg8
S'Great Barred Frog'
p2397
sg10
(lp2398
I36
aI26
aI208
aI202
asg12
I0
sasS'BluePoisonDartFrog1149'
p2399
(lp2400
(dp2401
g5
I0
sg6
S'Unspecified'
p2402
sg8
S'Blue Poison Dart Frog'
p2403
sg10
(lp2404
I10
aI28
aI209
aI206
asg12
I0
sasS'GBF1058'
p2405
(lp2406
(dp2407
g5
I0
sg6
S'Unspecified'
p2408
sg8
S'Great Barred Frog'
p2409
sg10
(lp2410
I10
aI30
aI178
aI200
asg12
I0
sasS'GoldenPoisonDartFrog787'
p2411
(lp2412
(dp2413
g5
I0
sg6
S'Unspecified'
p2414
sg8
S'Golden Poison Dart Frog'
p2415
sg10
(lp2416
I1
aI34
aI193
aI181
asg12
I1
sasS'VietnameseMossy509'
p2417
(lp2418
(dp2419
g5
I0
sg6
S'Unspecified'
p2420
sg8
S'Vietnamese Mossy Forg'
p2421
sg10
(lp2422
I33
aI25
aI204
aI133
asg12
I0
sasS'RedCrownedToadlet779'
p2423
(lp2424
(dp2425
g5
I0
sg6
S'Unspecified'
p2426
sg8
S'Red Crowned Toadlet'
p2427
sg10
(lp2428
I64
aI82
aI167
aI165
asg12
I0
sasS'GoldenPoisonDartFrog699'
p2429
(lp2430
(dp2431
g5
I0
sg6
S'Unspecified'
p2432
sg8
S'Golden Poison Dart Frog'
p2433
sg10
(lp2434
I53
aI65
aI143
aI187
asg12
I0
sasS'1653'
p2435
(lp2436
(dp2437
g5
I0
sg6
S'Unspecified'
p2438
sg8
S'Blue Mountains Tree Frog'
p2439
sg10
(lp2440
I6
aI20
aI151
aI182
asg12
I0
sasS'corroboreefrog1214'
p2441
(lp2442
(dp2443
g5
I0
sg6
S'Unspecified'
p2444
sg8
S'Corroboree Frog'
p2445
sg10
(lp2446
I98
aI27
aI180
aI74
asg12
I0
sa(dp2447
g5
I0
sg6
S'Unspecified'
p2448
sg8
S'Corroboree Frog'
p2449
sg10
(lp2450
I42
aI85
aI127
aI130
asg12
I0
sa(dp2451
g5
I0
sg6
S'Unspecified'
p2452
sg8
S'Corroboree Frog'
p2453
sg10
(lp2454
I113
aI145
aI196
aI205
asg12
I0
sasS'corroboreefrog1215'
p2455
(lp2456
(dp2457
g5
I0
sg6
S'Unspecified'
p2458
sg8
S'Corroboree Frog'
p2459
sg10
(lp2460
I26
aI43
aI78
aI126
asg12
I0
sa(dp2461
g5
I0
sg6
S'Unspecified'
p2462
sg8
S'Corroboree Frog'
p2463
sg10
(lp2464
I84
aI98
aI128
aI182
asg12
I0
sa(dp2465
g5
I0
sg6
S'Unspecified'
p2466
sg8
S'Corroboree Frog'
p2467
sg10
(lp2468
I150
aI28
aI203
aI109
asg12
I0
sasS'1656'
p2469
(lp2470
(dp2471
g5
I0
sg6
S'Unspecified'
p2472
sg8
S'Blue Mountains Tree Frog'
p2473
sg10
(lp2474
I43
aI1
aI211
aI182
asg12
I1
sasS'RedCrownedToadlet121'
p2475
(lp2476
(dp2477
g5
I0
sg6
S'Unspecified'
p2478
sg8
S'Red Crowned Toadlet'
p2479
sg10
(lp2480
I20
aI11
aI191
aI196
asg12
I0
sasS'RedEyed826'
p2481
(lp2482
(dp2483
g5
I0
sg6
S'Unspecified'
p2484
sg8
S'Red Eyed Tree Frog'
p2485
sg10
(lp2486
I60
aI30
aI158
aI153
asg12
I0
sasS'RedEyed827'
p2487
(lp2488
(dp2489
g5
I0
sg6
S'Unspecified'
p2490
sg8
S'Red Eyed Tree Frog'
p2491
sg10
(lp2492
I79
aI83
aI123
aI138
asg12
I0
sasS'GoldenPoisonDartFrog417'
p2493
(lp2494
(dp2495
g5
I0
sg6
S'Unspecified'
p2496
sg8
S'Golden Poison Dart Frog'
p2497
sg10
(lp2498
I45
aI45
aI101
aI154
asg12
I0
sa(dp2499
g5
I0
sg6
S'Unspecified'
p2500
sg8
S'Golden Poison Dart Frog'
p2501
sg10
(lp2502
I97
aI57
aI161
aI187
asg12
I0
sasS'CaneToad1,947'
p2503
(lp2504
(dp2505
g5
I0
sg6
S'Unspecified'
p2506
sg8
S'CaneToad'
p2507
sg10
(lp2508
I45
aI58
aI216
aI206
asg12
I0
sasS'BluePoisonDartFrog1008'
p2509
(lp2510
(dp2511
g5
I0
sg6
S'Unspecified'
p2512
sg8
S'Blue Poison Dart Frog'
p2513
sg10
(lp2514
I112
aI28
aI189
aI176
asg12
I0
sasS'greetreefrog1782'
p2515
(lp2516
(dp2517
g5
I0
sg6
S'Unspecified'
p2518
sg8
S'Green Tree Frog'
p2519
sg10
(lp2520
I46
aI27
aI207
aI212
asg12
I0
sasS'BluePoisonDartFrog1004'
p2521
(lp2522
(dp2523
g5
I0
sg6
S'Unspecified'
p2524
sg8
S'Blue Poison Dart Frog'
p2525
sg10
(lp2526
I38
aI30
aI199
aI197
asg12
I0
sasS'RedCrownedToadlet128'
p2527
(lp2528
(dp2529
g5
I0
sg6
S'Unspecified'
p2530
sg8
S'Red Crowned Toadlet'
p2531
sg10
(lp2532
I6
aI67
aI189
aI178
asg12
I0
sasS'RedEyed166'
p2533
(lp2534
(dp2535
g5
I0
sg6
S'Unspecified'
p2536
sg8
S'Red Eyed Tree Frog'
p2537
sg10
(lp2538
I5
aI5
aI166
aI160
asg12
I0
sasS'1135'
p2539
(lp2540
(dp2541
g5
I0
sg6
S'Unspecified'
p2542
sg8
S'Blue Mountains Tree Frog'
p2543
sg10
(lp2544
I53
aI31
aI156
aI208
asg12
I0
sasS'BluePoisonDartFrog1003'
p2545
(lp2546
(dp2547
g5
I0
sg6
S'Unspecified'
p2548
sg8
S'Blue Poison Dart Frog'
p2549
sg10
(lp2550
I33
aI59
aI181
aI156
asg12
I0
sasS'BluePoisonDartFrog778'
p2551
(lp2552
(dp2553
g5
I0
sg6
S'Unspecified'
p2554
sg8
S'Blue Poison Dart Frog'
p2555
sg10
(lp2556
I42
aI28
aI177
aI176
asg12
I0
sasS'greetreefrog1917'
p2557
(lp2558
(dp2559
g5
I0
sg6
S'Unspecified'
p2560
sg8
S'Green Tree Frog'
p2561
sg10
(lp2562
I18
aI20
aI183
aI185
asg12
I0
sasS'GoldenPoisonDartFrog170'
p2563
(lp2564
(dp2565
g5
I0
sg6
S'Unspecified'
p2566
sg8
S'Golden Poison Dart Frog'
p2567
sg10
(lp2568
I81
aI87
aI179
aI158
asg12
I0
sasS'RedEyed546'
p2569
(lp2570
(dp2571
g5
I0
sg6
S'Unspecified'
p2572
sg8
S'Red Eyed Tree Frog'
p2573
sg10
(lp2574
I44
aI82
aI108
aI204
asg12
I0
sasS'GBF935'
p2575
(lp2576
(dp2577
g5
I0
sg6
S'Unspecified'
p2578
sg8
S'Great Barred Frog'
p2579
sg10
(lp2580
I81
aI90
aI141
aI190
asg12
I0
sasS'greetreefrog1919'
p2581
(lp2582
(dp2583
g5
I0
sg6
S'Unspecified'
p2584
sg8
S'Green Tree Frog'
p2585
sg10
(lp2586
I21
aI40
aI202
aI210
asg12
I0
sasS'greetreefrog581'
p2587
(lp2588
(dp2589
g5
I0
sg6
S'Unspecified'
p2590
sg8
S'Green Tree Frog'
p2591
sg10
(lp2592
I29
aI21
aI165
aI211
asg12
I0
sasS'RedCrownedToadlet476'
p2593
(lp2594
(dp2595
g5
I0
sg6
S'Unspecified'
p2596
sg8
S'Red Crowned Toadlet'
p2597
sg10
(lp2598
I44
aI50
aI194
aI173
asg12
I0
sasS'1437'
p2599
(lp2600
(dp2601
g5
I0
sg6
S'Unspecified'
p2602
sg8
S'Blue Mountains Tree Frog'
p2603
sg10
(lp2604
I33
aI50
aI202
aI167
asg12
I0
sasS'CaneToad1,898'
p2605
(lp2606
(dp2607
g5
I0
sg6
S'Unspecified'
p2608
sg8
S'CaneToad'
p2609
sg10
(lp2610
I54
aI19
aI154
aI191
asg12
I0
sasS'corroboreefrog1152'
p2611
(lp2612
(dp2613
g5
I0
sg6
S'Unspecified'
p2614
sg8
S'Corroboree Frog'
p2615
sg10
(lp2616
I8
aI15
aI224
aI151
asg12
I1
sasS'greetreefrog1098'
p2617
(lp2618
(dp2619
g5
I0
sg6
S'Unspecified'
p2620
sg8
S'Green Tree Frog'
p2621
sg10
(lp2622
I61
aI5
aI186
aI190
asg12
I0
sasS'2064'
p2623
(lp2624
(dp2625
g5
I0
sg6
S'Unspecified'
p2626
sg8
S'Blue Mountains Tree Frog'
p2627
sg10
(lp2628
I72
aI105
aI178
aI164
asg12
I0
sa(dp2629
g5
I0
sg6
S'Unspecified'
p2630
sg8
S'Blue Mountains Tree Frog'
p2631
sg10
(lp2632
I22
aI32
aI208
aI141
asg12
I0
sasS'VietnameseMossy648'
p2633
(lp2634
(dp2635
g5
I0
sg6
S'Unspecified'
p2636
sg8
S'Vietnamese Mossy Forg'
p2637
sg10
(lp2638
I29
aI57
aI195
aI197
asg12
I0
sasS'GBF589'
p2639
(lp2640
(dp2641
g5
I0
sg6
S'Unspecified'
p2642
sg8
S'Great Barred Frog'
p2643
sg10
(lp2644
I70
aI4
aI146
aI162
asg12
I0
sasS'925'
p2645
(lp2646
(dp2647
g5
I0
sg6
S'Unspecified'
p2648
sg8
S'Blue Mountains Tree Frog'
p2649
sg10
(lp2650
I8
aI11
aI216
aI213
asg12
I0
sasS'corroboreefrog1326'
p2651
(lp2652
(dp2653
g5
I0
sg6
S'Unspecified'
p2654
sg8
S'Corroboree Frog'
p2655
sg10
(lp2656
I112
aI6
aI200
aI158
asg12
I0
sasS'1661'
p2657
(lp2658
(dp2659
g5
I0
sg6
S'Unspecified'
p2660
sg8
S'Blue Mountains Tree Frog'
p2661
sg10
(lp2662
I34
aI38
aI209
aI217
asg12
I0
sasS'510'
p2663
(lp2664
(dp2665
g5
I0
sg6
S'Unspecified'
p2666
sg8
S'Blue Mountains Tree Frog'
p2667
sg10
(lp2668
I71
aI99
aI181
aI224
asg12
I1
sasS'corroboreefrog308'
p2669
(lp2670
(dp2671
g5
I0
sg6
S'Unspecified'
p2672
sg8
S'Corroboree Frog'
p2673
sg10
(lp2674
I31
aI85
aI107
aI208
asg12
I0
sa(dp2675
g5
I0
sg6
S'Unspecified'
p2676
sg8
S'Corroboree Frog'
p2677
sg10
(lp2678
I112
aI8
aI221
aI103
asg12
I0
sasS'516'
p2679
(lp2680
(dp2681
g5
I0
sg6
S'Unspecified'
p2682
sg8
S'Blue Mountains Tree Frog'
p2683
sg10
(lp2684
I43
aI2
aI150
aI223
asg12
I0
sasS'1349'
p2685
(lp2686
(dp2687
g5
I0
sg6
S'Unspecified'
p2688
sg8
S'Blue Mountains Tree Frog'
p2689
sg10
(lp2690
I23
aI7
aI197
aI157
asg12
I0
sasS'GoldenPoisonDartFrog1095'
p2691
(lp2692
(dp2693
g5
I0
sg6
S'Unspecified'
p2694
sg8
S'Golden Poison Dart Frog'
p2695
sg10
(lp2696
I13
aI16
aI210
aI205
asg12
I0
sasS'corroboreefrog1101'
p2697
(lp2698
(dp2699
g5
I0
sg6
S'Unspecified'
p2700
sg8
S'Corroboree Frog'
p2701
sg10
(lp2702
I27
aI10
aI203
aI181
asg12
I0
sasS'BluePoisonDartFrog312'
p2703
(lp2704
(dp2705
g5
I0
sg6
S'Unspecified'
p2706
sg8
S'Blue Poison Dart Frog'
p2707
sg10
(lp2708
I79
aI67
aI223
aI224
asg12
I1
sasS'RedCrownedToadlet158'
p2709
(lp2710
(dp2711
g5
I0
sg6
S'Unspecified'
p2712
sg8
S'Red Crowned Toadlet'
p2713
sg10
(lp2714
I28
aI1
aI224
aI188
asg12
I1
sasS'GBF65'
p2715
(lp2716
(dp2717
g5
I0
sg6
S'Unspecified'
p2718
sg8
S'Great Barred Frog'
p2719
sg10
(lp2720
I6
aI19
aI224
aI222
asg12
I1
sasS'greetreefrog1868'
p2721
(lp2722
(dp2723
g5
I0
sg6
S'Unspecified'
p2724
sg8
S'Green Tree Frog'
p2725
sg10
(lp2726
I29
aI10
aI215
aI197
asg12
I0
sasS'corroboreefrog129'
p2727
(lp2728
(dp2729
g5
I0
sg6
S'Unspecified'
p2730
sg8
S'Corroboree Frog'
p2731
sg10
(lp2732
I3
aI3
aI84
aI184
asg12
I0
sa(dp2733
g5
I0
sg6
S'Unspecified'
p2734
sg8
S'Corroboree Frog'
p2735
sg10
(lp2736
I93
aI88
aI185
aI224
asg12
I1
sasS'greetreefrog1290'
p2737
(lp2738
(dp2739
g5
I0
sg6
S'Unspecified'
p2740
sg8
S'Green Tree Frog'
p2741
sg10
(lp2742
I10
aI104
aI114
aI198
asg12
I0
sasS'RedEyed935'
p2743
(lp2744
(dp2745
g5
I0
sg6
S'Unspecified'
p2746
sg8
S'Red Eyed Tree Frog'
p2747
sg10
(lp2748
I29
aI59
aI208
aI194
asg12
I0
sasS'greetreefrog1295'
p2749
(lp2750
(dp2751
g5
I0
sg6
S'Unspecified'
p2752
sg8
S'Green Tree Frog'
p2753
sg10
(lp2754
I1
aI27
aI115
aI132
asg12
I1
sasS'GoldenPoisonDartFrog388'
p2755
(lp2756
(dp2757
g5
I0
sg6
S'Unspecified'
p2758
sg8
S'Golden Poison Dart Frog'
p2759
sg10
(lp2760
I10
aI8
aI192
aI191
asg12
I0
sasS'GoldenPoisonDartFrog387'
p2761
(lp2762
(dp2763
g5
I0
sg6
S'Unspecified'
p2764
sg8
S'Golden Poison Dart Frog'
p2765
sg10
(lp2766
I61
aI49
aI167
aI166
asg12
I0
sasS'BluePoisonDartFrog497'
p2767
(lp2768
(dp2769
g5
I0
sg6
S'Unspecified'
p2770
sg8
S'Blue Poison Dart Frog'
p2771
sg10
(lp2772
I6
aI39
aI87
aI116
asg12
I0
sa(dp2773
g5
I0
sg6
S'Unspecified'
p2774
sg8
S'Blue Poison Dart Frog'
p2775
sg10
(lp2776
I80
aI30
aI160
aI122
asg12
I0
sa(dp2777
g5
I0
sg6
S'Unspecified'
p2778
sg8
S'Blue Poison Dart Frog'
p2779
sg10
(lp2780
I138
aI83
aI212
aI194
asg12
I0
sasS'173'
p2781
(lp2782
(dp2783
g5
I0
sg6
S'Unspecified'
p2784
sg8
S'Blue Mountains Tree Frog'
p2785
sg10
(lp2786
I28
aI31
aI217
aI195
asg12
I0
sasS'BluePoisonDartFrog568'
p2787
(lp2788
(dp2789
g5
I0
sg6
S'Unspecified'
p2790
sg8
S'Blue Poison Dart Frog'
p2791
sg10
(lp2792
I27
aI44
aI169
aI198
asg12
I0
sasS'GGBF525'
p2793
(lp2794
(dp2795
g5
I0
sg6
S'Unspecified'
p2796
sg8
S'Green And Golden Bell Frog'
p2797
sg10
(lp2798
I41
aI85
aI224
aI188
asg12
I1
sasS'GGBF246'
p2799
(lp2800
(dp2801
g5
I0
sg6
S'Unspecified'
p2802
sg8
S'Green And Golden Bell Frog'
p2803
sg10
(lp2804
I13
aI46
aI196
aI186
asg12
I0
sasS'greetreefrog1780'
p2805
(lp2806
(dp2807
g5
I0
sg6
S'Unspecified'
p2808
sg8
S'Green Tree Frog'
p2809
sg10
(lp2810
I61
aI29
aI199
aI190
asg12
I0
sasS'972'
p2811
(lp2812
(dp2813
g5
I0
sg6
S'Unspecified'
p2814
sg8
S'Blue Mountains Tree Frog'
p2815
sg10
(lp2816
I10
aI12
aI214
aI213
asg12
I0
sasS'BluePoisonDartFrog387'
p2817
(lp2818
(dp2819
g5
I0
sg6
S'Unspecified'
p2820
sg8
S'Blue Poison Dart Frog'
p2821
sg10
(lp2822
I6
aI27
aI201
aI165
asg12
I0
sasS'GBF653'
p2823
(lp2824
(dp2825
g5
I0
sg6
S'Unspecified'
p2826
sg8
S'Great Barred Frog'
p2827
sg10
(lp2828
I27
aI12
aI196
aI212
asg12
I0
sasS'GGBF753'
p2829
(lp2830
(dp2831
g5
I0
sg6
S'Unspecified'
p2832
sg8
S'Green And Golden Bell Frog'
p2833
sg10
(lp2834
I25
aI43
aI206
aI207
asg12
I0
sasS'GBF303'
p2835
(lp2836
(dp2837
g5
I0
sg6
S'Unspecified'
p2838
sg8
S'Great Barred Frog'
p2839
sg10
(lp2840
I33
aI6
aI201
aI202
asg12
I0
sasS'656'
p2841
(lp2842
(dp2843
g5
I0
sg6
S'Unspecified'
p2844
sg8
S'Blue Mountains Tree Frog'
p2845
sg10
(lp2846
I12
aI3
aI204
aI171
asg12
I0
sasS'GoldenPoisonDartFrog252'
p2847
(lp2848
(dp2849
g5
I0
sg6
S'Unspecified'
p2850
sg8
S'Golden Poison Dart Frog'
p2851
sg10
(lp2852
I34
aI65
aI152
aI189
asg12
I0
sasS'GoldenPoisonDartFrog253'
p2853
(lp2854
(dp2855
g5
I0
sg6
S'Unspecified'
p2856
sg8
S'Golden Poison Dart Frog'
p2857
sg10
(lp2858
I8
aI2
aI195
aI181
asg12
I0
sasS'GoldenPoisonDartFrog84'
p2859
(lp2860
(dp2861
g5
I0
sg6
S'Unspecified'
p2862
sg8
S'Golden Poison Dart Frog'
p2863
sg10
(lp2864
I82
aI43
aI148
aI100
asg12
I0
sasS'RedEyed466'
p2865
(lp2866
(dp2867
g5
I0
sg6
S'Unspecified'
p2868
sg8
S'Red Eyed Tree Frog'
p2869
sg10
(lp2870
I106
aI29
aI216
aI179
asg12
I0
sasS'1504'
p2871
(lp2872
(dp2873
g5
I0
sg6
S'Unspecified'
p2874
sg8
S'Blue Mountains Tree Frog'
p2875
sg10
(lp2876
I52
aI30
aI224
aI188
asg12
I1
sasS'GoldenPoisonDartFrog259'
p2877
(lp2878
(dp2879
g5
I0
sg6
S'Unspecified'
p2880
sg8
S'Golden Poison Dart Frog'
p2881
sg10
(lp2882
I75
aI19
aI174
aI131
asg12
I0
sa(dp2883
g5
I0
sg6
S'Unspecified'
p2884
sg8
S'Golden Poison Dart Frog'
p2885
sg10
(lp2886
I3
aI93
aI70
aI180
asg12
I0
sasS'RedCrownedToadlet666'
p2887
(lp2888
(dp2889
g5
I0
sg6
S'Unspecified'
p2890
sg8
S'Red Crowned Toadlet'
p2891
sg10
(lp2892
I16
aI56
aI125
aI203
asg12
I0
sasS'greetreefrog1126'
p2893
(lp2894
(dp2895
g5
I0
sg6
S'Unspecified'
p2896
sg8
S'Green Tree Frog'
p2897
sg10
(lp2898
I26
aI66
aI128
aI201
asg12
I0
sasS'RedEyed503'
p2899
(lp2900
(dp2901
g5
I0
sg6
S'Unspecified'
p2902
sg8
S'Red Eyed Tree Frog'
p2903
sg10
(lp2904
I55
aI57
aI177
aI202
asg12
I0
sasS'RedCrownedToadlet668'
p2905
(lp2906
(dp2907
g5
I0
sg6
S'Unspecified'
p2908
sg8
S'Red Crowned Toadlet'
p2909
sg10
(lp2910
I95
aI5
aI220
aI213
asg12
I0
sasS'CaneToad1,829'
p2911
(lp2912
(dp2913
g5
I0
sg6
S'Unspecified'
p2914
sg8
S'CaneToad'
p2915
sg10
(lp2916
I1
aI22
aI223
aI197
asg12
I1
sasS'greetreefrog1923'
p2917
(lp2918
(dp2919
g5
I0
sg6
S'Unspecified'
p2920
sg8
S'Green Tree Frog'
p2921
sg10
(lp2922
I28
aI12
aI216
aI195
asg12
I0
sasS'1919'
p2923
(lp2924
(dp2925
g5
I0
sg6
S'Unspecified'
p2926
sg8
S'Blue Mountains Tree Frog'
p2927
sg10
(lp2928
I42
aI28
aI198
aI188
asg12
I0
sasS'greetreefrog46'
p2929
(lp2930
(dp2931
g5
I0
sg6
S'Unspecified'
p2932
sg8
S'Green Tree Frog'
p2933
sg10
(lp2934
I48
aI54
aI192
aI203
asg12
I0
sasS'corroboreefrog935'
p2935
(lp2936
(dp2937
g5
I0
sg6
S'Unspecified'
p2938
sg8
S'Corroboree Frog'
p2939
sg10
(lp2940
I7
aI29
aI146
aI153
asg12
I0
sasS'CaneToad1,239'
p2941
(lp2942
(dp2943
g5
I0
sg6
S'Unspecified'
p2944
sg8
S'CaneToad'
p2945
sg10
(lp2946
I84
aI4
aI164
aI192
asg12
I0
sasS'CaneToad1,235'
p2947
(lp2948
(dp2949
g5
I0
sg6
S'Unspecified'
p2950
sg8
S'CaneToad'
p2951
sg10
(lp2952
I28
aI18
aI209
aI164
asg12
I0
sasS'RedEyed506'
p2953
(lp2954
(dp2955
g5
I0
sg6
S'Unspecified'
p2956
sg8
S'Red Eyed Tree Frog'
p2957
sg10
(lp2958
I82
aI58
aI201
aI205
asg12
I0
sasS'RedEyed990'
p2959
(lp2960
(dp2961
g5
I0
sg6
S'Unspecified'
p2962
sg8
S'Red Eyed Tree Frog'
p2963
sg10
(lp2964
I4
aI23
aI113
aI193
asg12
I0
sasS'RedEyed491'
p2965
(lp2966
(dp2967
g5
I0
sg6
S'Unspecified'
p2968
sg8
S'Red Eyed Tree Frog'
p2969
sg10
(lp2970
I5
aI65
aI165
aI188
asg12
I0
sasS'VietnameseMossy559'
p2971
(lp2972
(dp2973
g5
I0
sg6
S'Unspecified'
p2974
sg8
S'Vietnamese Mossy Forg'
p2975
sg10
(lp2976
I40
aI57
aI199
aI208
asg12
I0
sasS'GoldenPoisonDartFrog950'
p2977
(lp2978
(dp2979
g5
I0
sg6
S'Unspecified'
p2980
sg8
S'Golden Poison Dart Frog'
p2981
sg10
(lp2982
I12
aI39
aI137
aI134
asg12
I0
sasS'RedEyed994'
p2983
(lp2984
(dp2985
g5
I0
sg6
S'Unspecified'
p2986
sg8
S'Red Eyed Tree Frog'
p2987
sg10
(lp2988
I64
aI56
aI169
aI210
asg12
I0
sasS'corroboreefrog323'
p2989
(lp2990
(dp2991
g5
I0
sg6
S'Unspecified'
p2992
sg8
S'Corroboree Frog'
p2993
sg10
(lp2994
I22
aI64
aI183
aI202
asg12
I0
sasS'CaneToad1,627'
p2995
(lp2996
(dp2997
g5
I0
sg6
S'Unspecified'
p2998
sg8
S'CaneToad'
p2999
sg10
(lp3000
I102
aI74
aI224
aI172
asg12
I0
sasS'RedCrownedToadlet406'
p3001
(lp3002
(dp3003
g5
I0
sg6
S'Unspecified'
p3004
sg8
S'Red Crowned Toadlet'
p3005
sg10
(lp3006
I10
aI55
aI223
aI200
asg12
I0
sasS'860'
p3007
(lp3008
(dp3009
g5
I0
sg6
S'Unspecified'
p3010
sg8
S'Blue Mountains Tree Frog'
p3011
sg10
(lp3012
I14
aI5
aI200
aI174
asg12
I0
sasS'CaneToad1,785'
p3013
(lp3014
(dp3015
g5
I0
sg6
S'Unspecified'
p3016
sg8
S'CaneToad'
p3017
sg10
(lp3018
I14
aI9
aI223
aI201
asg12
I0
sasS'greetreefrog1434'
p3019
(lp3020
(dp3021
g5
I0
sg6
S'Unspecified'
p3022
sg8
S'Green Tree Frog'
p3023
sg10
(lp3024
I29
aI11
aI196
aI195
asg12
I0
sasS'BluePoisonDartFrog1380'
p3025
(lp3026
(dp3027
g5
I0
sg6
S'Unspecified'
p3028
sg8
S'Blue Poison Dart Frog'
p3029
sg10
(lp3030
I18
aI65
aI173
aI174
asg12
I0
sasS'GoldenPoisonDartFrog1106'
p3031
(lp3032
(dp3033
g5
I0
sg6
S'Unspecified'
p3034
sg8
S'Golden Poison Dart Frog'
p3035
sg10
(lp3036
I1
aI16
aI171
aI192
asg12
I1
sasS'GGBF339'
p3037
(lp3038
(dp3039
g5
I0
sg6
S'Unspecified'
p3040
sg8
S'Green And Golden Bell Frog'
p3041
sg10
(lp3042
I15
aI33
aI204
aI143
asg12
I0
sasS'GBF390'
p3043
(lp3044
(dp3045
g5
I0
sg6
S'Unspecified'
p3046
sg8
S'Great Barred Frog'
p3047
sg10
(lp3048
I27
aI2
aI201
aI204
asg12
I0
sasS'GBF396'
p3049
(lp3050
(dp3051
g5
I0
sg6
S'Unspecified'
p3052
sg8
S'Great Barred Frog'
p3053
sg10
(lp3054
I13
aI2
aI212
aI176
asg12
I0
sasS'GoldenPoisonDartFrog592'
p3055
(lp3056
(dp3057
g5
I0
sg6
S'Unspecified'
p3058
sg8
S'Golden Poison Dart Frog'
p3059
sg10
(lp3060
I53
aI68
aI206
aI204
asg12
I0
sasS'corroboreefrog1613'
p3061
(lp3062
(dp3063
g5
I0
sg6
S'Unspecified'
p3064
sg8
S'Corroboree Frog'
p3065
sg10
(lp3066
I37
aI34
aI206
aI214
asg12
I0
sasS'GBF399'
p3067
(lp3068
(dp3069
g5
I0
sg6
S'Unspecified'
p3070
sg8
S'Great Barred Frog'
p3071
sg10
(lp3072
I33
aI42
aI224
aI172
asg12
I1
sasS'GGBF622'
p3073
(lp3074
(dp3075
g5
I0
sg6
S'Unspecified'
p3076
sg8
S'Green And Golden Bell Frog'
p3077
sg10
(lp3078
I38
aI32
aI224
aI222
asg12
I1
sasS'GoldenPoisonDartFrog178'
p3079
(lp3080
(dp3081
g5
I0
sg6
S'Unspecified'
p3082
sg8
S'Golden Poison Dart Frog'
p3083
sg10
(lp3084
I16
aI12
aI198
aI180
asg12
I0
sasS'greetreefrog1632'
p3085
(lp3086
(dp3087
g5
I0
sg6
S'Unspecified'
p3088
sg8
S'Green Tree Frog'
p3089
sg10
(lp3090
I20
aI25
aI183
aI195
asg12
I0
sasS'CaneToad2,036'
p3091
(lp3092
(dp3093
g5
I0
sg6
S'Unspecified'
p3094
sg8
S'CaneToad'
p3095
sg10
(lp3096
I1
aI53
aI168
aI197
asg12
I1
sasS'greetreefrog926'
p3097
(lp3098
(dp3099
g5
I0
sg6
S'Unspecified'
p3100
sg8
S'Green Tree Frog'
p3101
sg10
(lp3102
I24
aI13
aI193
aI212
asg12
I0
sasS'RedEyed497'
p3103
(lp3104
(dp3105
g5
I0
sg6
S'Unspecified'
p3106
sg8
S'Red Eyed Tree Frog'
p3107
sg10
(lp3108
I24
aI2
aI224
aI208
asg12
I1
sasS'GoldenPoisonDartFrog872'
p3109
(lp3110
(dp3111
g5
I0
sg6
S'Unspecified'
p3112
sg8
S'Golden Poison Dart Frog'
p3113
sg10
(lp3114
I72
aI7
aI183
aI175
asg12
I0
sasS'greetreefrog846'
p3115
(lp3116
(dp3117
g5
I0
sg6
S'Unspecified'
p3118
sg8
S'Green Tree Frog'
p3119
sg10
(lp3120
I47
aI8
aI187
aI218
asg12
I0
sasS'greetreefrog842'
p3121
(lp3122
(dp3123
g5
I0
sg6
S'Unspecified'
p3124
sg8
S'Green Tree Frog'
p3125
sg10
(lp3126
I9
aI42
aI218
aI189
asg12
I0
sasS'greetreefrog1180'
p3127
(lp3128
(dp3129
g5
I0
sg6
S'Unspecified'
p3130
sg8
S'Green Tree Frog'
p3131
sg10
(lp3132
I12
aI19
aI201
aI207
asg12
I0
sasS'RedEyed751'
p3133
(lp3134
(dp3135
g5
I0
sg6
S'Unspecified'
p3136
sg8
S'Red Eyed Tree Frog'
p3137
sg10
(lp3138
I10
aI40
aI213
aI198
asg12
I0
sasS'RedCrownedToadlet466'
p3139
(lp3140
(dp3141
g5
I0
sg6
S'Unspecified'
p3142
sg8
S'Red Crowned Toadlet'
p3143
sg10
(lp3144
I14
aI16
aI191
aI201
asg12
I0
sasS'corroboreefrog172'
p3145
(lp3146
(dp3147
g5
I0
sg6
S'Unspecified'
p3148
sg8
S'Corroboree Frog'
p3149
sg10
(lp3150
I66
aI80
aI114
aI151
asg12
I0
sasS'GoldenPoisonDartFrog1004'
p3151
(lp3152
(dp3153
g5
I0
sg6
S'Unspecified'
p3154
sg8
S'Golden Poison Dart Frog'
p3155
sg10
(lp3156
I108
aI19
aI185
aI167
asg12
I0
sasS'RedEyed196'
p3157
(lp3158
(dp3159
g5
I0
sg6
S'Unspecified'
p3160
sg8
S'Red Eyed Tree Frog'
p3161
sg10
(lp3162
I33
aI73
aI123
aI186
asg12
I0
sasS'corroboreefrog1681'
p3163
(lp3164
(dp3165
g5
I0
sg6
S'Unspecified'
p3166
sg8
S'Corroboree Frog'
p3167
sg10
(lp3168
I27
aI41
aI155
aI206
asg12
I0
sasS'357'
p3169
(lp3170
(dp3171
g5
I0
sg6
S'Unspecified'
p3172
sg8
S'Blue Mountains Tree Frog'
p3173
sg10
(lp3174
I21
aI11
aI159
aI205
asg12
I0
sasS'corroboreefrog1682'
p3175
(lp3176
(dp3177
g5
I0
sg6
S'Unspecified'
p3178
sg8
S'Corroboree Frog'
p3179
sg10
(lp3180
I27
aI74
aI209
aI198
asg12
I0
sasS'corroboreefrog499'
p3181
(lp3182
(dp3183
g5
I0
sg6
S'Unspecified'
p3184
sg8
S'Corroboree Frog'
p3185
sg10
(lp3186
I42
aI42
aI193
aI187
asg12
I0
sasS'corroboreefrog1722'
p3187
(lp3188
(dp3189
g5
I0
sg6
S'Unspecified'
p3190
sg8
S'Corroboree Frog'
p3191
sg10
(lp3192
I37
aI55
aI182
aI170
asg12
I0
sasS'greetreefrog1617'
p3193
(lp3194
(dp3195
g5
I0
sg6
S'Unspecified'
p3196
sg8
S'Green Tree Frog'
p3197
sg10
(lp3198
I23
aI55
aI216
aI144
asg12
I0
sasS'1610'
p3199
(lp3200
(dp3201
g5
I0
sg6
S'Unspecified'
p3202
sg8
S'Blue Mountains Tree Frog'
p3203
sg10
(lp3204
I12
aI3
aI184
aI200
asg12
I0
sasS'GGBF935'
p3205
(lp3206
(dp3207
g5
I0
sg6
S'Unspecified'
p3208
sg8
S'Green And Golden Bell Frog'
p3209
sg10
(lp3210
I12
aI14
aI207
aI215
asg12
I0
sasS'323'
p3211
(lp3212
(dp3213
g5
I0
sg6
S'Unspecified'
p3214
sg8
S'Blue Mountains Tree Frog'
p3215
sg10
(lp3216
I24
aI11
aI159
aI157
asg12
I0
sasS'BluePoisonDartFrog927'
p3217
(lp3218
(dp3219
g5
I0
sg6
S'Unspecified'
p3220
sg8
S'Blue Poison Dart Frog'
p3221
sg10
(lp3222
I56
aI20
aI198
aI147
asg12
I0
sasS'corroboreefrog77'
p3223
(lp3224
(dp3225
g5
I0
sg6
S'Unspecified'
p3226
sg8
S'Corroboree Frog'
p3227
sg10
(lp3228
I38
aI38
aI224
aI223
asg12
I1
sasS'corroboreefrog1442'
p3229
(lp3230
(dp3231
g5
I0
sg6
S'Unspecified'
p3232
sg8
S'Corroboree Frog'
p3233
sg10
(lp3234
I32
aI2
aI133
aI108
asg12
I0
sasS'greetreefrog630'
p3235
(lp3236
(dp3237
g5
I0
sg6
S'Unspecified'
p3238
sg8
S'Green Tree Frog'
p3239
sg10
(lp3240
I95
aI53
aI209
aI202
asg12
I0
sasS'greetreefrog721'
p3241
(lp3242
(dp3243
g5
I0
sg6
S'Unspecified'
p3244
sg8
S'Green Tree Frog'
p3245
sg10
(lp3246
I63
aI50
aI198
aI196
asg12
I0
sasS'corroboreefrog78'
p3247
(lp3248
(dp3249
g5
I0
sg6
S'Unspecified'
p3250
sg8
S'Corroboree Frog'
p3251
sg10
(lp3252
I30
aI39
aI125
aI189
asg12
I0
sasS'greetreefrog727'
p3253
(lp3254
(dp3255
g5
I0
sg6
S'Unspecified'
p3256
sg8
S'Green Tree Frog'
p3257
sg10
(lp3258
I48
aI13
aI158
aI114
asg12
I0
sasS'GBF478'
p3259
(lp3260
(dp3261
g5
I0
sg6
S'Unspecified'
p3262
sg8
S'Great Barred Frog'
p3263
sg10
(lp3264
I23
aI40
aI193
aI176
asg12
I0
sasS'VietnameseMossy240'
p3265
(lp3266
(dp3267
g5
I0
sg6
S'Unspecified'
p3268
sg8
S'Vietnamese Mossy Forg'
p3269
sg10
(lp3270
I15
aI53
aI179
aI216
asg12
I0
sasS'greetreefrog653'
p3271
(lp3272
(dp3273
g5
I0
sg6
S'Unspecified'
p3274
sg8
S'Green Tree Frog'
p3275
sg10
(lp3276
I31
aI11
aI224
aI203
asg12
I1
sasS'GoldenPoisonDartFrog512'
p3277
(lp3278
(dp3279
g5
I0
sg6
S'Unspecified'
p3280
sg8
S'Golden Poison Dart Frog'
p3281
sg10
(lp3282
I23
aI36
aI180
aI183
asg12
I0
sasS'CaneToad1,128'
p3283
(lp3284
(dp3285
g5
I0
sg6
S'Unspecified'
p3286
sg8
S'CaneToad'
p3287
sg10
(lp3288
I22
aI1
aI202
aI180
asg12
I1
sasS'202'
p3289
(lp3290
(dp3291
g5
I0
sg6
S'Unspecified'
p3292
sg8
S'Blue Mountains Tree Frog'
p3293
sg10
(lp3294
I56
aI39
aI224
aI222
asg12
I1
sasS'greetreefrog1751'
p3295
(lp3296
(dp3297
g5
I0
sg6
S'Unspecified'
p3298
sg8
S'Green Tree Frog'
p3299
sg10
(lp3300
I107
aI45
aI184
aI142
asg12
I0
sasS'206'
p3301
(lp3302
(dp3303
g5
I0
sg6
S'Unspecified'
p3304
sg8
S'Blue Mountains Tree Frog'
p3305
sg10
(lp3306
I34
aI52
aI224
aI220
asg12
I1
sasS'corroboreefrog775'
p3307
(lp3308
(dp3309
g5
I0
sg6
S'Unspecified'
p3310
sg8
S'Corroboree Frog'
p3311
sg10
(lp3312
I1
aI1
aI163
aI217
asg12
I1
sasS'greetreefrog1694'
p3313
(lp3314
(dp3315
g5
I0
sg6
S'Unspecified'
p3316
sg8
S'Green Tree Frog'
p3317
sg10
(lp3318
I18
aI87
aI187
aI181
asg12
I0
sasS'corroboreefrog777'
p3319
(lp3320
(dp3321
g5
I0
sg6
S'Unspecified'
p3322
sg8
S'Corroboree Frog'
p3323
sg10
(lp3324
I34
aI122
aI175
aI189
asg12
I0
sasS'CaneToad1,127'
p3325
(lp3326
(dp3327
g5
I0
sg6
S'Unspecified'
p3328
sg8
S'CaneToad'
p3329
sg10
(lp3330
I46
aI105
aI145
aI190
asg12
I0
sasS'greetreefrog710'
p3331
(lp3332
(dp3333
g5
I0
sg6
S'Unspecified'
p3334
sg8
S'Green Tree Frog'
p3335
sg10
(lp3336
I15
aI29
aI181
aI205
asg12
I0
sasS'greetreefrog153'
p3337
(lp3338
(dp3339
g5
I0
sg6
S'Unspecified'
p3340
sg8
S'Green Tree Frog'
p3341
sg10
(lp3342
I17
aI41
aI97
aI95
asg12
I0
sasS'CaneToad2,102'
p3343
(lp3344
(dp3345
g5
I0
sg6
S'Unspecified'
p3346
sg8
S'CaneToad'
p3347
sg10
(lp3348
I37
aI1
aI186
aI176
asg12
I1
sasS'75'
p3349
(lp3350
(dp3351
g5
I0
sg6
S'Unspecified'
p3352
sg8
S'Blue Mountains Tree Frog'
p3353
sg10
(lp3354
I32
aI33
aI187
aI223
asg12
I0
sasS'GoldenPoisonDartFrog75'
p3355
(lp3356
(dp3357
g5
I0
sg6
S'Unspecified'
p3358
sg8
S'Golden Poison Dart Frog'
p3359
sg10
(lp3360
I43
aI18
aI205
aI167
asg12
I0
sasS'CaneToad2,106'
p3361
(lp3362
(dp3363
g5
I0
sg6
S'Unspecified'
p3364
sg8
S'CaneToad'
p3365
sg10
(lp3366
I35
aI2
aI176
aI211
asg12
I0
sasS'corroboreefrog672'
p3367
(lp3368
(dp3369
g5
I0
sg6
S'Unspecified'
p3370
sg8
S'Corroboree Frog'
p3371
sg10
(lp3372
I9
aI40
aI218
aI207
asg12
I0
sasS'GoldenPoisonDartFrog76'
p3373
(lp3374
(dp3375
g5
I0
sg6
S'Unspecified'
p3376
sg8
S'Golden Poison Dart Frog'
p3377
sg10
(lp3378
I62
aI72
aI199
aI181
asg12
I0
sasS'RedEyed808'
p3379
(lp3380
(dp3381
g5
I0
sg6
S'Unspecified'
p3382
sg8
S'Red Eyed Tree Frog'
p3383
sg10
(lp3384
I12
aI8
aI214
aI219
asg12
I0
sasS'RedEyed376'
p3385
(lp3386
(dp3387
g5
I0
sg6
S'Unspecified'
p3388
sg8
S'Red Eyed Tree Frog'
p3389
sg10
(lp3390
I53
aI12
aI147
aI170
asg12
I0
sasS'BluePoisonDartFrog107'
p3391
(lp3392
(dp3393
g5
I0
sg6
S'Unspecified'
p3394
sg8
S'Blue Poison Dart Frog'
p3395
sg10
(lp3396
I108
aI83
aI222
aI198
asg12
I0
sasS'VietnameseMossy334'
p3397
(lp3398
(dp3399
g5
I0
sg6
S'Unspecified'
p3400
sg8
S'Vietnamese Mossy Forg'
p3401
sg10
(lp3402
I60
aI21
aI221
aI205
asg12
I0
sasS'RedEyed373'
p3403
(lp3404
(dp3405
g5
I0
sg6
S'Unspecified'
p3406
sg8
S'Red Eyed Tree Frog'
p3407
sg10
(lp3408
I51
aI1
aI154
aI110
asg12
I1
sasS'GGBF93'
p3409
(lp3410
(dp3411
g5
I0
sg6
S'Unspecified'
p3412
sg8
S'Green And Golden Bell Frog'
p3413
sg10
(lp3414
I5
aI31
aI174
aI223
asg12
I0
sasS'corroboreefrog782'
p3415
(lp3416
(dp3417
g5
I0
sg6
S'Unspecified'
p3418
sg8
S'Corroboree Frog'
p3419
sg10
(lp3420
I44
aI58
aI179
aI163
asg12
I0
sasS'RedEyed595'
p3421
(lp3422
(dp3423
g5
I0
sg6
S'Unspecified'
p3424
sg8
S'Red Eyed Tree Frog'
p3425
sg10
(lp3426
I85
aI72
aI159
aI127
asg12
I0
sasS'CaneToad2,124'
p3427
(lp3428
(dp3429
g5
I0
sg6
S'Unspecified'
p3430
sg8
S'CaneToad'
p3431
sg10
(lp3432
I10
aI1
aI161
aI154
asg12
I1
sasS'corroboreefrog441'
p3433
(lp3434
(dp3435
g5
I0
sg6
S'Unspecified'
p3436
sg8
S'Corroboree Frog'
p3437
sg10
(lp3438
I28
aI24
aI214
aI195
asg12
I0
sasS'RedCrownedToadlet54'
p3439
(lp3440
(dp3441
g5
I0
sg6
S'Unspecified'
p3442
sg8
S'Red Crowned Toadlet'
p3443
sg10
(lp3444
I59
aI70
aI157
aI150
asg12
I0
sasS'GoldenPoisonDartFrog15'
p3445
(lp3446
(dp3447
g5
I0
sg6
S'Unspecified'
p3448
sg8
S'Golden Poison Dart Frog'
p3449
sg10
(lp3450
I80
aI26
aI203
aI212
asg12
I0
sasS'1681'
p3451
(lp3452
(dp3453
g5
I0
sg6
S'Unspecified'
p3454
sg8
S'Blue Mountains Tree Frog'
p3455
sg10
(lp3456
I29
aI50
aI184
aI214
asg12
I0
sasS'CaneToad1,676'
p3457
(lp3458
(dp3459
g5
I0
sg6
S'Unspecified'
p3460
sg8
S'CaneToad'
p3461
sg10
(lp3462
I25
aI58
aI226
aI219
asg12
I0
sasS'corroboreefrog1244'
p3463
(lp3464
(dp3465
g5
I0
sg6
S'Unspecified'
p3466
sg8
S'Corroboree Frog'
p3467
sg10
(lp3468
I18
aI9
aI194
aI219
asg12
I0
sasS'GBF881'
p3469
(lp3470
(dp3471
g5
I0
sg6
S'Unspecified'
p3472
sg8
S'Great Barred Frog'
p3473
sg10
(lp3474
I25
aI16
aI184
aI199
asg12
I0
sasS'BluePoisonDartFrog1137'
p3475
(lp3476
(dp3477
g5
I0
sg6
S'Unspecified'
p3478
sg8
S'Blue Poison Dart Frog'
p3479
sg10
(lp3480
I9
aI13
aI76
aI159
asg12
I0
sasS'1763'
p3481
(lp3482
(dp3483
g5
I0
sg6
S'Unspecified'
p3484
sg8
S'Blue Mountains Tree Frog'
p3485
sg10
(lp3486
I30
aI41
aI196
aI189
asg12
I0
sasS'682'
p3487
(lp3488
(dp3489
g5
I0
sg6
S'Unspecified'
p3490
sg8
S'Blue Mountains Tree Frog'
p3491
sg10
(lp3492
I19
aI18
aI144
aI184
asg12
I0
sasS'greetreefrog533'
p3493
(lp3494
(dp3495
g5
I0
sg6
S'Unspecified'
p3496
sg8
S'Green Tree Frog'
p3497
sg10
(lp3498
I18
aI4
aI171
aI216
asg12
I0
sasS'CaneToad1,690'
p3499
(lp3500
(dp3501
g5
I0
sg6
S'Unspecified'
p3502
sg8
S'CaneToad'
p3503
sg10
(lp3504
I27
aI31
aI207
aI212
asg12
I0
sasS'BluePoisonDartFrog586'
p3505
(lp3506
(dp3507
g5
I0
sg6
S'Unspecified'
p3508
sg8
S'Blue Poison Dart Frog'
p3509
sg10
(lp3510
I18
aI90
aI77
aI161
asg12
I0
sa(dp3511
g5
I0
sg6
S'Unspecified'
p3512
sg8
S'Blue Poison Dart Frog'
p3513
sg10
(lp3514
I75
aI57
aI197
aI187
asg12
I0
sasS'corroboreefrog603'
p3515
(lp3516
(dp3517
g5
I0
sg6
S'Unspecified'
p3518
sg8
S'Corroboree Frog'
p3519
sg10
(lp3520
I91
aI37
aI197
aI120
asg12
I0
sa(dp3521
g5
I0
sg6
S'Unspecified'
p3522
sg8
S'Corroboree Frog'
p3523
sg10
(lp3524
I14
aI92
aI97
aI176
asg12
I0
sa(dp3525
g5
I0
sg6
S'Unspecified'
p3526
sg8
S'Corroboree Frog'
p3527
sg10
(lp3528
I133
aI119
aI207
aI218
asg12
I0
sasS'RedCrownedToadlet299'
p3529
(lp3530
(dp3531
g5
I0
sg6
S'Unspecified'
p3532
sg8
S'Red Crowned Toadlet'
p3533
sg10
(lp3534
I13
aI63
aI224
aI211
asg12
I1
sasS'corroboreefrog1023'
p3535
(lp3536
(dp3537
g5
I0
sg6
S'Unspecified'
p3538
sg8
S'Corroboree Frog'
p3539
sg10
(lp3540
I33
aI25
aI183
aI178
asg12
I0
sasS'668'
p3541
(lp3542
(dp3543
g5
I0
sg6
S'Unspecified'
p3544
sg8
S'Blue Mountains Tree Frog'
p3545
sg10
(lp3546
I19
aI1
aI182
aI100
asg12
I1
sasS'1263'
p3547
(lp3548
(dp3549
g5
I0
sg6
S'Unspecified'
p3550
sg8
S'Blue Mountains Tree Frog'
p3551
sg10
(lp3552
I25
aI32
aI204
aI193
asg12
I0
sasS'RedCrownedToadlet526'
p3553
(lp3554
(dp3555
g5
I0
sg6
S'Unspecified'
p3556
sg8
S'Red Crowned Toadlet'
p3557
sg10
(lp3558
I32
aI40
aI178
aI196
asg12
I0
sasS'CaneToad1,977'
p3559
(lp3560
(dp3561
g5
I0
sg6
S'Unspecified'
p3562
sg8
S'CaneToad'
p3563
sg10
(lp3564
I80
aI18
aI166
aI202
asg12
I0
sasS'BluePoisonDartFrog1357'
p3565
(lp3566
(dp3567
g5
I0
sg6
S'Unspecified'
p3568
sg8
S'Blue Poison Dart Frog'
p3569
sg10
(lp3570
I17
aI38
aI96
aI159
asg12
I0
sasS'CaneToad1,755'
p3571
(lp3572
(dp3573
g5
I0
sg6
S'Unspecified'
p3574
sg8
S'CaneToad'
p3575
sg10
(lp3576
I154
aI116
aI224
aI219
asg12
I1
sasS'corroboreefrog918'
p3577
(lp3578
(dp3579
g5
I0
sg6
S'Unspecified'
p3580
sg8
S'Corroboree Frog'
p3581
sg10
(lp3582
I52
aI81
aI158
aI179
asg12
I0
sasS'CaneToad1,973'
p3583
(lp3584
(dp3585
g5
I0
sg6
S'Unspecified'
p3586
sg8
S'CaneToad'
p3587
sg10
(lp3588
I44
aI10
aI183
aI220
asg12
I0
sasS'RedCrownedToadlet224'
p3589
(lp3590
(dp3591
g5
I0
sg6
S'Unspecified'
p3592
sg8
S'Red Crowned Toadlet'
p3593
sg10
(lp3594
I14
aI46
aI189
aI171
asg12
I0
sasS'BluePoisonDartFrog215'
p3595
(lp3596
(dp3597
g5
I0
sg6
S'Unspecified'
p3598
sg8
S'Blue Poison Dart Frog'
p3599
sg10
(lp3600
I48
aI66
aI162
aI182
asg12
I0
sasS'BluePoisonDartFrog355'
p3601
(lp3602
(dp3603
g5
I0
sg6
S'Unspecified'
p3604
sg8
S'Blue Poison Dart Frog'
p3605
sg10
(lp3606
I12
aI18
aI205
aI175
asg12
I0
sasS'CaneToad1,052'
p3607
(lp3608
(dp3609
g5
I0
sg6
S'Unspecified'
p3610
sg8
S'CaneToad'
p3611
sg10
(lp3612
I85
aI2
aI179
aI209
asg12
I0
sasS'CaneToad1,053'
p3613
(lp3614
(dp3615
g5
I0
sg6
S'Unspecified'
p3616
sg8
S'CaneToad'
p3617
sg10
(lp3618
I17
aI1
aI217
aI223
asg12
I1
sasS'greetreefrog1393'
p3619
(lp3620
(dp3621
g5
I0
sg6
S'Unspecified'
p3622
sg8
S'Green Tree Frog'
p3623
sg10
(lp3624
I45
aI41
aI190
aI214
asg12
I0
sasS'GGBF382'
p3625
(lp3626
(dp3627
g5
I0
sg6
S'Unspecified'
p3628
sg8
S'Green And Golden Bell Frog'
p3629
sg10
(lp3630
I41
aI61
aI165
aI182
asg12
I0
sasS'GGBF383'
p3631
(lp3632
(dp3633
g5
I0
sg6
S'Unspecified'
p3634
sg8
S'Green And Golden Bell Frog'
p3635
sg10
(lp3636
I63
aI60
aI148
aI171
asg12
I0
sasS'RedEyed550'
p3637
(lp3638
(dp3639
g5
I0
sg6
S'Unspecified'
p3640
sg8
S'Red Eyed Tree Frog'
p3641
sg10
(lp3642
I32
aI12
aI224
aI172
asg12
I1
sasS'VietnameseMossy748'
p3643
(lp3644
(dp3645
g5
I0
sg6
S'Unspecified'
p3646
sg8
S'Vietnamese Mossy Forg'
p3647
sg10
(lp3648
I23
aI38
aI212
aI194
asg12
I0
sasS'greetreefrog1304'
p3649
(lp3650
(dp3651
g5
I0
sg6
S'Unspecified'
p3652
sg8
S'Green Tree Frog'
p3653
sg10
(lp3654
I7
aI3
aI200
aI195
asg12
I0
sasS'CaneToad1,058'
p3655
(lp3656
(dp3657
g5
I0
sg6
S'Unspecified'
p3658
sg8
S'CaneToad'
p3659
sg10
(lp3660
I38
aI45
aI209
aI198
asg12
I0
sasS'GGBF385'
p3661
(lp3662
(dp3663
g5
I0
sg6
S'Unspecified'
p3664
sg8
S'Green And Golden Bell Frog'
p3665
sg10
(lp3666
I15
aI41
aI204
aI195
asg12
I0
sasS'693'
p3667
(lp3668
(dp3669
g5
I0
sg6
S'Unspecified'
p3670
sg8
S'Blue Mountains Tree Frog'
p3671
sg10
(lp3672
I78
aI95
aI169
aI198
asg12
I0
sasS'GBF16'
p3673
(lp3674
(dp3675
g5
I0
sg6
S'Unspecified'
p3676
sg8
S'Great Barred Frog'
p3677
sg10
(lp3678
I25
aI33
aI199
aI222
asg12
I0
sasS'1543'
p3679
(lp3680
(dp3681
g5
I0
sg6
S'Unspecified'
p3682
sg8
S'Blue Mountains Tree Frog'
p3683
sg10
(lp3684
I45
aI17
aI218
aI213
asg12
I0
sasS'RedEyed671'
p3685
(lp3686
(dp3687
g5
I0
sg6
S'Unspecified'
p3688
sg8
S'Red Eyed Tree Frog'
p3689
sg10
(lp3690
I74
aI6
aI200
aI167
asg12
I0
sasS'GoldenPoisonDartFrog582'
p3691
(lp3692
(dp3693
g5
I0
sg6
S'Unspecified'
p3694
sg8
S'Golden Poison Dart Frog'
p3695
sg10
(lp3696
I31
aI19
aI209
aI187
asg12
I0
sasS'GGBF147'
p3697
(lp3698
(dp3699
g5
I0
sg6
S'Unspecified'
p3700
sg8
S'Green And Golden Bell Frog'
p3701
sg10
(lp3702
I66
aI32
aI162
aI163
asg12
I0
sasS'RedCrownedToadlet896'
p3703
(lp3704
(dp3705
g5
I0
sg6
S'Unspecified'
p3706
sg8
S'Red Crowned Toadlet'
p3707
sg10
(lp3708
I15
aI1
aI147
aI156
asg12
I1
sasS'GGBF142'
p3709
(lp3710
(dp3711
g5
I0
sg6
S'Unspecified'
p3712
sg8
S'Green And Golden Bell Frog'
p3713
sg10
(lp3714
I1
aI48
aI181
aI209
asg12
I1
sasS'1549'
p3715
(lp3716
(dp3717
g5
I0
sg6
S'Unspecified'
p3718
sg8
S'Blue Mountains Tree Frog'
p3719
sg10
(lp3720
I44
aI27
aI209
aI194
asg12
I0
sasS'VietnameseMossy568'
p3721
(lp3722
(dp3723
g5
I0
sg6
S'Unspecified'
p3724
sg8
S'Vietnamese Mossy Forg'
p3725
sg10
(lp3726
I26
aI26
aI171
aI215
asg12
I0
sasS'RedCrownedToadlet546'
p3727
(lp3728
(dp3729
g5
I0
sg6
S'Unspecified'
p3730
sg8
S'Red Crowned Toadlet'
p3731
sg10
(lp3732
I44
aI48
aI173
aI190
asg12
I0
sasS'VietnameseMossy9'
p3733
(lp3734
(dp3735
g5
I0
sg6
S'Unspecified'
p3736
sg8
S'Vietnamese Mossy Forg'
p3737
sg10
(lp3738
I31
aI40
aI188
aI201
asg12
I0
sasS'RedEyed737'
p3739
(lp3740
(dp3741
g5
I0
sg6
S'Unspecified'
p3742
sg8
S'Red Eyed Tree Frog'
p3743
sg10
(lp3744
I24
aI38
aI201
aI145
asg12
I0
sasS'1460'
p3745
(lp3746
(dp3747
g5
I0
sg6
S'Unspecified'
p3748
sg8
S'Blue Mountains Tree Frog'
p3749
sg10
(lp3750
I51
aI47
aI206
aI209
asg12
I0
sasS'1463'
p3751
(lp3752
(dp3753
g5
I0
sg6
S'Unspecified'
p3754
sg8
S'Blue Mountains Tree Frog'
p3755
sg10
(lp3756
I48
aI24
aI209
aI182
asg12
I0
sasS'1019'
p3757
(lp3758
(dp3759
g5
I0
sg6
S'Unspecified'
p3760
sg8
S'Blue Mountains Tree Frog'
p3761
sg10
(lp3762
I47
aI5
aI206
aI224
asg12
I1
sasS'RedCrownedToadlet208'
p3763
(lp3764
(dp3765
g5
I0
sg6
S'Unspecified'
p3766
sg8
S'Red Crowned Toadlet'
p3767
sg10
(lp3768
I101
aI102
aI172
aI166
asg12
I0
sasS'GGBF56'
p3769
(lp3770
(dp3771
g5
I0
sg6
S'Unspecified'
p3772
sg8
S'Green And Golden Bell Frog'
p3773
sg10
(lp3774
I54
aI32
aI195
aI164
asg12
I0
sasS'GBF985'
p3775
(lp3776
(dp3777
g5
I0
sg6
S'Unspecified'
p3778
sg8
S'Great Barred Frog'
p3779
sg10
(lp3780
I39
aI42
aI205
aI163
asg12
I0
sasS'1313'
p3781
(lp3782
(dp3783
g5
I0
sg6
S'Unspecified'
p3784
sg8
S'Blue Mountains Tree Frog'
p3785
sg10
(lp3786
I16
aI23
aI196
aI191
asg12
I0
sasS'procVietnameseMossy875'
p3787
(lp3788
(dp3789
g5
I0
sg6
S'Unspecified'
p3790
sg8
S'Vietnamese Mossy Forg'
p3791
sg10
(lp3792
I24
aI56
aI201
aI205
asg12
I0
sasS'GBF56'
p3793
(lp3794
(dp3795
g5
I0
sg6
S'Unspecified'
p3796
sg8
S'Great Barred Frog'
p3797
sg10
(lp3798
I2
aI25
aI195
aI212
asg12
I0
sasS'RedEyed11'
p3799
(lp3800
(dp3801
g5
I0
sg6
S'Unspecified'
p3802
sg8
S'Red Eyed Tree Frog'
p3803
sg10
(lp3804
I75
aI2
aI223
aI179
asg12
I0
sasS'GoldenPoisonDartFrog1041'
p3805
(lp3806
(dp3807
g5
I0
sg6
S'Unspecified'
p3808
sg8
S'Golden Poison Dart Frog'
p3809
sg10
(lp3810
I21
aI17
aI203
aI195
asg12
I0
sasS'VietnameseMossy366'
p3811
(lp3812
(dp3813
g5
I0
sg6
S'Unspecified'
p3814
sg8
S'Vietnamese Mossy Forg'
p3815
sg10
(lp3816
I28
aI43
aI191
aI152
asg12
I0
sasS'CaneToad1,583'
p3817
(lp3818
(dp3819
g5
I0
sg6
S'Unspecified'
p3820
sg8
S'CaneToad'
p3821
sg10
(lp3822
I74
aI28
aI141
aI92
asg12
I0
sasS'greetreefrog500'
p3823
(lp3824
(dp3825
g5
I0
sg6
S'Unspecified'
p3826
sg8
S'Green Tree Frog'
p3827
sg10
(lp3828
I101
aI31
aI215
aI196
asg12
I0
sasS'CaneToad1,379'
p3829
(lp3830
(dp3831
g5
I0
sg6
S'Unspecified'
p3832
sg8
S'CaneToad'
p3833
sg10
(lp3834
I48
aI2
aI193
aI216
asg12
I0
sasS'CaneToad1,378'
p3835
(lp3836
(dp3837
g5
I0
sg6
S'Unspecified'
p3838
sg8
S'CaneToad'
p3839
sg10
(lp3840
I57
aI67
aI181
aI221
asg12
I0
sasS'VietnameseMossy842'
p3841
(lp3842
(dp3843
g5
I0
sg6
S'Unspecified'
p3844
sg8
S'Vietnamese Mossy Forg'
p3845
sg10
(lp3846
I148
aI31
aI209
aI116
asg12
I0
sasS'VietnameseMossy14'
p3847
(lp3848
(dp3849
g5
I0
sg6
S'Unspecified'
p3850
sg8
S'Vietnamese Mossy Forg'
p3851
sg10
(lp3852
I30
aI57
aI200
aI169
asg12
I0
sasS'GoldenPoisonDartFrog1055'
p3853
(lp3854
(dp3855
g5
I0
sg6
S'Unspecified'
p3856
sg8
S'Golden Poison Dart Frog'
p3857
sg10
(lp3858
I123
aI6
aI224
aI145
asg12
I1
sa(dp3859
g5
I0
sg6
S'Unspecified'
p3860
sg8
S'Golden Poison Dart Frog'
p3861
sg10
(lp3862
I1
aI40
aI95
aI178
asg12
I1
sasS'CaneToad1,377'
p3863
(lp3864
(dp3865
g5
I0
sg6
S'Unspecified'
p3866
sg8
S'CaneToad'
p3867
sg10
(lp3868
I3
aI2
aI224
aI222
asg12
I1
sasS'GoldenPoisonDartFrog901'
p3869
(lp3870
(dp3871
g5
I0
sg6
S'Unspecified'
p3872
sg8
S'Golden Poison Dart Frog'
p3873
sg10
(lp3874
I62
aI56
aI146
aI161
asg12
I0
sasS'GoldenPoisonDartFrog772'
p3875
(lp3876
(dp3877
g5
I0
sg6
S'Unspecified'
p3878
sg8
S'Golden Poison Dart Frog'
p3879
sg10
(lp3880
I79
aI32
aI192
aI177
asg12
I0
sasS'GBF880'
p3881
(lp3882
(dp3883
g5
I0
sg6
S'Unspecified'
p3884
sg8
S'Great Barred Frog'
p3885
sg10
(lp3886
I53
aI29
aI188
aI180
asg12
I0
sasS'GoldenPoisonDartFrog739'
p3887
(lp3888
(dp3889
g5
I0
sg6
S'Unspecified'
p3890
sg8
S'Golden Poison Dart Frog'
p3891
sg10
(lp3892
I70
aI56
aI163
aI153
asg12
I0
sasS'GBF352'
p3893
(lp3894
(dp3895
g5
I0
sg6
S'Unspecified'
p3896
sg8
S'Great Barred Frog'
p3897
sg10
(lp3898
I9
aI1
aI205
aI213
asg12
I1
sasS'corroboreefrog986'
p3899
(lp3900
(dp3901
g5
I0
sg6
S'Unspecified'
p3902
sg8
S'Corroboree Frog'
p3903
sg10
(lp3904
I106
aI100
aI206
aI182
asg12
I0
sa(dp3905
g5
I0
sg6
S'Unspecified'
p3906
sg8
S'Corroboree Frog'
p3907
sg10
(lp3908
I1
aI121
aI106
aI197
asg12
I1
sasS'GoldenPoisonDartFrog223'
p3909
(lp3910
(dp3911
g5
I0
sg6
S'Unspecified'
p3912
sg8
S'Golden Poison Dart Frog'
p3913
sg10
(lp3914
I60
aI34
aI195
aI197
asg12
I0
sasS'GGBF666'
p3915
(lp3916
(dp3917
g5
I0
sg6
S'Unspecified'
p3918
sg8
S'Green And Golden Bell Frog'
p3919
sg10
(lp3920
I31
aI32
aI214
aI192
asg12
I0
sasS'1823'
p3921
(lp3922
(dp3923
g5
I0
sg6
S'Unspecified'
p3924
sg8
S'Blue Mountains Tree Frog'
p3925
sg10
(lp3926
I90
aI3
aI202
aI217
asg12
I0
sasS'RedEyed405'
p3927
(lp3928
(dp3929
g5
I0
sg6
S'Unspecified'
p3930
sg8
S'Red Eyed Tree Frog'
p3931
sg10
(lp3932
I70
aI67
aI188
aI128
asg12
I0
sasS'GBF689'
p3933
(lp3934
(dp3935
g5
I0
sg6
S'Unspecified'
p3936
sg8
S'Great Barred Frog'
p3937
sg10
(lp3938
I3
aI2
aI192
aI182
asg12
I0
sasS'corroboreefrog369'
p3939
(lp3940
(dp3941
g5
I0
sg6
S'Unspecified'
p3942
sg8
S'Corroboree Frog'
p3943
sg10
(lp3944
I39
aI44
aI113
aI111
asg12
I0
sa(dp3945
g5
I0
sg6
S'Unspecified'
p3946
sg8
S'Corroboree Frog'
p3947
sg10
(lp3948
I114
aI65
aI181
aI129
asg12
I0
sa(dp3949
g5
I0
sg6
S'Unspecified'
p3950
sg8
S'Corroboree Frog'
p3951
sg10
(lp3952
I35
aI139
aI109
aI203
asg12
I0
sa(dp3953
g5
I0
sg6
S'Unspecified'
p3954
sg8
S'Corroboree Frog'
p3955
sg10
(lp3956
I109
aI144
aI193
aI197
asg12
I0
sasS'greetreefrog1471'
p3957
(lp3958
(dp3959
g5
I0
sg6
S'Unspecified'
p3960
sg8
S'Green Tree Frog'
p3961
sg10
(lp3962
I27
aI27
aI152
aI143
asg12
I0
sasS'411'
p3963
(lp3964
(dp3965
g5
I0
sg6
S'Unspecified'
p3966
sg8
S'Blue Mountains Tree Frog'
p3967
sg10
(lp3968
I35
aI37
aI210
aI203
asg12
I0
sasS'VietnameseMossy324'
p3969
(lp3970
(dp3971
g5
I0
sg6
S'Unspecified'
p3972
sg8
S'Vietnamese Mossy Forg'
p3973
sg10
(lp3974
I32
aI34
aI201
aI182
asg12
I0
sasS'corroboreefrog1151'
p3975
(lp3976
(dp3977
g5
I0
sg6
S'Unspecified'
p3978
sg8
S'Corroboree Frog'
p3979
sg10
(lp3980
I74
aI2
aI212
aI214
asg12
I0
sasS'procVietnameseMossy973'
p3981
(lp3982
(dp3983
g5
I0
sg6
S'Unspecified'
p3984
sg8
S'Vietnamese Mossy Forg'
p3985
sg10
(lp3986
I5
aI1
aI193
aI223
asg12
I1
sasS'BluePoisonDartFrog1222'
p3987
(lp3988
(dp3989
g5
I0
sg6
S'Unspecified'
p3990
sg8
S'Blue Poison Dart Frog'
p3991
sg10
(lp3992
I29
aI27
aI164
aI172
asg12
I0
sasS'2063'
p3993
(lp3994
(dp3995
g5
I0
sg6
S'Unspecified'
p3996
sg8
S'Blue Mountains Tree Frog'
p3997
sg10
(lp3998
I61
aI67
aI117
aI179
asg12
I0
sa(dp3999
g5
I0
sg6
S'Unspecified'
p4000
sg8
S'Blue Mountains Tree Frog'
p4001
sg10
(lp4002
I90
aI27
aI196
aI206
asg12
I0
sasS'1380'
p4003
(lp4004
(dp4005
g5
I0
sg6
S'Unspecified'
p4006
sg8
S'Blue Mountains Tree Frog'
p4007
sg10
(lp4008
I29
aI64
aI186
aI192
asg12
I0
sasS'419'
p4009
(lp4010
(dp4011
g5
I0
sg6
S'Unspecified'
p4012
sg8
S'Blue Mountains Tree Frog'
p4013
sg10
(lp4014
I47
aI60
aI188
aI173
asg12
I0
sasS'926'
p4015
(lp4016
(dp4017
g5
I0
sg6
S'Unspecified'
p4018
sg8
S'Blue Mountains Tree Frog'
p4019
sg10
(lp4020
I22
aI8
aI208
aI212
asg12
I0
sasS'greetreefrog774'
p4021
(lp4022
(dp4023
g5
I0
sg6
S'Unspecified'
p4024
sg8
S'Green Tree Frog'
p4025
sg10
(lp4026
I26
aI13
aI196
aI197
asg12
I0
sasS'GoldenPoisonDartFrog675'
p4027
(lp4028
(dp4029
g5
I0
sg6
S'Unspecified'
p4030
sg8
S'Golden Poison Dart Frog'
p4031
sg10
(lp4032
I53
aI10
aI178
aI124
asg12
I0
sasS'greetreefrog770'
p4033
(lp4034
(dp4035
g5
I0
sg6
S'Unspecified'
p4036
sg8
S'Green Tree Frog'
p4037
sg10
(lp4038
I37
aI34
aI196
aI179
asg12
I0
sasS'greetreefrog1337'
p4039
(lp4040
(dp4041
g5
I0
sg6
S'Unspecified'
p4042
sg8
S'Green Tree Frog'
p4043
sg10
(lp4044
I10
aI23
aI216
aI182
asg12
I0
sasS'GoldenPoisonDartFrog917'
p4045
(lp4046
(dp4047
g5
I0
sg6
S'Unspecified'
p4048
sg8
S'Golden Poison Dart Frog'
p4049
sg10
(lp4050
I44
aI62
aI90
aI157
asg12
I0
sasS'corroboreefrog1295'
p4051
(lp4052
(dp4053
g5
I0
sg6
S'Unspecified'
p4054
sg8
S'Corroboree Frog'
p4055
sg10
(lp4056
I20
aI49
aI174
aI187
asg12
I0
sasS'VietnameseMossy697'
p4057
(lp4058
(dp4059
g5
I0
sg6
S'Unspecified'
p4060
sg8
S'Vietnamese Mossy Forg'
p4061
sg10
(lp4062
I6
aI36
aI200
aI218
asg12
I0
sasS'GGBF922'
p4063
(lp4064
(dp4065
g5
I0
sg6
S'Unspecified'
p4066
sg8
S'Green And Golden Bell Frog'
p4067
sg10
(lp4068
I58
aI54
aI205
aI191
asg12
I0
sasS'corroboreefrog1291'
p4069
(lp4070
(dp4071
g5
I0
sg6
S'Unspecified'
p4072
sg8
S'Corroboree Frog'
p4073
sg10
(lp4074
I35
aI44
aI194
aI211
asg12
I0
sasS'greetreefrog13'
p4075
(lp4076
(dp4077
g5
I0
sg6
S'Unspecified'
p4078
sg8
S'Green Tree Frog'
p4079
sg10
(lp4080
I44
aI11
aI213
aI168
asg12
I0
sasS'VietnameseMossy539'
p4081
(lp4082
(dp4083
g5
I0
sg6
S'Unspecified'
p4084
sg8
S'Vietnamese Mossy Forg'
p4085
sg10
(lp4086
I66
aI50
aI165
aI186
asg12
I0
sasS'greetreefrog502'
p4087
(lp4088
(dp4089
g5
I0
sg6
S'Unspecified'
p4090
sg8
S'Green Tree Frog'
p4091
sg10
(lp4092
I98
aI28
aI224
aI221
asg12
I1
sasS'GBF533'
p4093
(lp4094
(dp4095
g5
I0
sg6
S'Unspecified'
p4096
sg8
S'Great Barred Frog'
p4097
sg10
(lp4098
I45
aI69
aI194
aI200
asg12
I0
sasS'VietnameseMossy371'
p4099
(lp4100
(dp4101
g5
I0
sg6
S'Unspecified'
p4102
sg8
S'Vietnamese Mossy Forg'
p4103
sg10
(lp4104
I5
aI1
aI183
aI216
asg12
I1
sasS'VietnameseMossy382'
p4105
(lp4106
(dp4107
g5
I0
sg6
S'Unspecified'
p4108
sg8
S'Vietnamese Mossy Forg'
p4109
sg10
(lp4110
I4
aI29
aI211
aI176
asg12
I0
sasS'corroboreefrog212'
p4111
(lp4112
(dp4113
g5
I0
sg6
S'Unspecified'
p4114
sg8
S'Corroboree Frog'
p4115
sg10
(lp4116
I52
aI52
aI205
aI164
asg12
I0
sasS'GBF79'
p4117
(lp4118
(dp4119
g5
I0
sg6
S'Unspecified'
p4120
sg8
S'Great Barred Frog'
p4121
sg10
(lp4122
I41
aI59
aI163
aI186
asg12
I0
sasS'greetreefrog1406'
p4123
(lp4124
(dp4125
g5
I0
sg6
S'Unspecified'
p4126
sg8
S'Green Tree Frog'
p4127
sg10
(lp4128
I43
aI5
aI224
aI195
asg12
I1
sasS'GoldenPoisonDartFrog640'
p4129
(lp4130
(dp4131
g5
I0
sg6
S'Unspecified'
p4132
sg8
S'Golden Poison Dart Frog'
p4133
sg10
(lp4134
I71
aI85
aI161
aI170
asg12
I0
sasS'CaneToad1,579'
p4135
(lp4136
(dp4137
g5
I0
sg6
S'Unspecified'
p4138
sg8
S'CaneToad'
p4139
sg10
(lp4140
I22
aI47
aI202
aI170
asg12
I0
sasS'greetreefrog117'
p4141
(lp4142
(dp4143
g5
I0
sg6
S'Unspecified'
p4144
sg8
S'Green Tree Frog'
p4145
sg10
(lp4146
I24
aI15
aI211
aI202
asg12
I0
sasS'GoldenPoisonDartFrog648'
p4147
(lp4148
(dp4149
g5
I0
sg6
S'Unspecified'
p4150
sg8
S'Golden Poison Dart Frog'
p4151
sg10
(lp4152
I42
aI65
aI141
aI167
asg12
I0
sasS'BluePoisonDartFrog969'
p4153
(lp4154
(dp4155
g5
I0
sg6
S'Unspecified'
p4156
sg8
S'Blue Poison Dart Frog'
p4157
sg10
(lp4158
I57
aI38
aI178
aI150
asg12
I0
sasS'RedCrownedToadlet494'
p4159
(lp4160
(dp4161
g5
I0
sg6
S'Unspecified'
p4162
sg8
S'Red Crowned Toadlet'
p4163
sg10
(lp4164
I20
aI33
aI201
aI189
asg12
I0
sasS'GGBF361'
p4165
(lp4166
(dp4167
g5
I0
sg6
S'Unspecified'
p4168
sg8
S'Green And Golden Bell Frog'
p4169
sg10
(lp4170
I20
aI25
aI177
aI211
asg12
I0
sasS'VietnameseMossy814'
p4171
(lp4172
(dp4173
g5
I0
sg6
S'Unspecified'
p4174
sg8
S'Vietnamese Mossy Forg'
p4175
sg10
(lp4176
I2
aI59
aI221
aI207
asg12
I0
sasS'GGBF889'
p4177
(lp4178
(dp4179
g5
I0
sg6
S'Unspecified'
p4180
sg8
S'Green And Golden Bell Frog'
p4181
sg10
(lp4182
I36
aI49
aI184
aI189
asg12
I0
sasS'GBF123'
p4183
(lp4184
(dp4185
g5
I0
sg6
S'Unspecified'
p4186
sg8
S'Great Barred Frog'
p4187
sg10
(lp4188
I8
aI28
aI215
aI222
asg12
I0
sasS'GBF124'
p4189
(lp4190
(dp4191
g5
I0
sg6
S'Unspecified'
p4192
sg8
S'Great Barred Frog'
p4193
sg10
(lp4194
I17
aI1
aI216
aI212
asg12
I1
sasS'GoldenPoisonDartFrog1035'
p4195
(lp4196
(dp4197
g5
I0
sg6
S'Unspecified'
p4198
sg8
S'Golden Poison Dart Frog'
p4199
sg10
(lp4200
I52
aI56
aI170
aI181
asg12
I0
sasS'VietnameseMossy149'
p4201
(lp4202
(dp4203
g5
I0
sg6
S'Unspecified'
p4204
sg8
S'Vietnamese Mossy Forg'
p4205
sg10
(lp4206
I34
aI55
aI223
aI173
asg12
I0
sasS'723'
p4207
(lp4208
(dp4209
g5
I0
sg6
S'Unspecified'
p4210
sg8
S'Blue Mountains Tree Frog'
p4211
sg10
(lp4212
I107
aI60
aI199
aI151
asg12
I0
sasS'RedCrownedToadlet923'
p4213
(lp4214
(dp4215
g5
I0
sg6
S'Unspecified'
p4216
sg8
S'Red Crowned Toadlet'
p4217
sg10
(lp4218
I26
aI17
aI216
aI218
asg12
I0
sasS'greetreefrog506'
p4219
(lp4220
(dp4221
g5
I0
sg6
S'Unspecified'
p4222
sg8
S'Green Tree Frog'
p4223
sg10
(lp4224
I31
aI106
aI224
aI223
asg12
I1
sasS'greetreefrog503'
p4225
(lp4226
(dp4227
g5
I0
sg6
S'Unspecified'
p4228
sg8
S'Green Tree Frog'
p4229
sg10
(lp4230
I4
aI7
aI135
aI196
asg12
I0
sasS'CaneToad2,069'
p4231
(lp4232
(dp4233
g5
I0
sg6
S'Unspecified'
p4234
sg8
S'CaneToad'
p4235
sg10
(lp4236
I59
aI71
aI181
aI187
asg12
I0
sasS'greetreefrog116'
p4237
(lp4238
(dp4239
g5
I0
sg6
S'Unspecified'
p4240
sg8
S'Green Tree Frog'
p4241
sg10
(lp4242
I29
aI23
aI224
aI222
asg12
I1
sasS'corroboreefrog439'
p4243
(lp4244
(dp4245
g5
I0
sg6
S'Unspecified'
p4246
sg8
S'Corroboree Frog'
p4247
sg10
(lp4248
I100
aI64
aI156
aI99
asg12
I0
sa(dp4249
g5
I0
sg6
S'Unspecified'
p4250
sg8
S'Corroboree Frog'
p4251
sg10
(lp4252
I125
aI94
aI185
aI146
asg12
I0
sa(dp4253
g5
I0
sg6
S'Unspecified'
p4254
sg8
S'Corroboree Frog'
p4255
sg10
(lp4256
I15
aI154
aI66
aI199
asg12
I0
sasS'corroboreefrog435'
p4257
(lp4258
(dp4259
g5
I0
sg6
S'Unspecified'
p4260
sg8
S'Corroboree Frog'
p4261
sg10
(lp4262
I65
aI66
aI124
aI98
asg12
I0
sa(dp4263
g5
I0
sg6
S'Unspecified'
p4264
sg8
S'Corroboree Frog'
p4265
sg10
(lp4266
I39
aI93
aI99
aI144
asg12
I0
sa(dp4267
g5
I0
sg6
S'Unspecified'
p4268
sg8
S'Corroboree Frog'
p4269
sg10
(lp4270
I156
aI152
aI207
aI196
asg12
I0
sasS'corroboreefrog431'
p4271
(lp4272
(dp4273
g5
I0
sg6
S'Unspecified'
p4274
sg8
S'Corroboree Frog'
p4275
sg10
(lp4276
I166
aI1
aI213
aI53
asg12
I1
sa(dp4277
g5
I0
sg6
S'Unspecified'
p4278
sg8
S'Corroboree Frog'
p4279
sg10
(lp4280
I58
aI90
aI97
aI161
asg12
I0
sa(dp4281
g5
I0
sg6
S'Unspecified'
p4282
sg8
S'Corroboree Frog'
p4283
sg10
(lp4284
I99
aI124
aI152
aI189
asg12
I0
sasS'RedEyed300'
p4285
(lp4286
(dp4287
g5
I0
sg6
S'Unspecified'
p4288
sg8
S'Red Eyed Tree Frog'
p4289
sg10
(lp4290
I82
aI16
aI146
aI155
asg12
I0
sasS'greetreefrog876'
p4291
(lp4292
(dp4293
g5
I0
sg6
S'Unspecified'
p4294
sg8
S'Green Tree Frog'
p4295
sg10
(lp4296
I3
aI24
aI222
aI214
asg12
I0
sasS'382'
p4297
(lp4298
(dp4299
g5
I0
sg6
S'Unspecified'
p4300
sg8
S'Blue Mountains Tree Frog'
p4301
sg10
(lp4302
I36
aI36
aI177
aI209
asg12
I0
sasS'RedEyed704'
p4303
(lp4304
(dp4305
g5
I0
sg6
S'Unspecified'
p4306
sg8
S'Red Eyed Tree Frog'
p4307
sg10
(lp4308
I17
aI69
aI150
aI205
asg12
I0
sasS'RedEyed706'
p4309
(lp4310
(dp4311
g5
I0
sg6
S'Unspecified'
p4312
sg8
S'Red Eyed Tree Frog'
p4313
sg10
(lp4314
I31
aI46
aI161
aI184
asg12
I0
sasS'VietnameseMossy656'
p4315
(lp4316
(dp4317
g5
I0
sg6
S'Unspecified'
p4318
sg8
S'Vietnamese Mossy Forg'
p4319
sg10
(lp4320
I18
aI15
aI169
aI224
asg12
I1
sasS'RedCrownedToadlet883'
p4321
(lp4322
(dp4323
g5
I0
sg6
S'Unspecified'
p4324
sg8
S'Red Crowned Toadlet'
p4325
sg10
(lp4326
I1
aI1
aI187
aI194
asg12
I1
sasS'787'
p4327
(lp4328
(dp4329
g5
I0
sg6
S'Unspecified'
p4330
sg8
S'Blue Mountains Tree Frog'
p4331
sg10
(lp4332
I1
aI18
aI173
aI220
asg12
I1
sasS'GGBF304'
p4333
(lp4334
(dp4335
g5
I0
sg6
S'Unspecified'
p4336
sg8
S'Green And Golden Bell Frog'
p4337
sg10
(lp4338
I7
aI25
aI197
aI216
asg12
I0
sasS'VietnameseMossy134'
p4339
(lp4340
(dp4341
g5
I0
sg6
S'Unspecified'
p4342
sg8
S'Vietnamese Mossy Forg'
p4343
sg10
(lp4344
I45
aI34
aI192
aI206
asg12
I0
sasS'corroboreefrog1778'
p4345
(lp4346
(dp4347
g5
I0
sg6
S'Unspecified'
p4348
sg8
S'Corroboree Frog'
p4349
sg10
(lp4350
I48
aI3
aI203
aI207
asg12
I0
sasS'greetreefrog802'
p4351
(lp4352
(dp4353
g5
I0
sg6
S'Unspecified'
p4354
sg8
S'Green Tree Frog'
p4355
sg10
(lp4356
I70
aI59
aI184
aI213
asg12
I0
sasS'corroboreefrog1475'
p4357
(lp4358
(dp4359
g5
I0
sg6
S'Unspecified'
p4360
sg8
S'Corroboree Frog'
p4361
sg10
(lp4362
I68
aI10
aI224
aI161
asg12
I1
sasS'CaneToad1,403'
p4363
(lp4364
(dp4365
g5
I0
sg6
S'Unspecified'
p4366
sg8
S'CaneToad'
p4367
sg10
(lp4368
I79
aI47
aI166
aI214
asg12
I0
sasS'GoldenPoisonDartFrog746'
p4369
(lp4370
(dp4371
g5
I0
sg6
S'Unspecified'
p4372
sg8
S'Golden Poison Dart Frog'
p4373
sg10
(lp4374
I8
aI18
aI186
aI203
asg12
I0
sasS'GGBF845'
p4375
(lp4376
(dp4377
g5
I0
sg6
S'Unspecified'
p4378
sg8
S'Green And Golden Bell Frog'
p4379
sg10
(lp4380
I64
aI93
aI148
aI161
asg12
I0
sasS'BluePoisonDartFrog52'
p4381
(lp4382
(dp4383
g5
I0
sg6
S'Unspecified'
p4384
sg8
S'Blue Poison Dart Frog'
p4385
sg10
(lp4386
I18
aI44
aI171
aI208
asg12
I0
sasS'VietnameseMossy744'
p4387
(lp4388
(dp4389
g5
I0
sg6
S'Unspecified'
p4390
sg8
S'Vietnamese Mossy Forg'
p4391
sg10
(lp4392
I12
aI80
aI85
aI179
asg12
I0
sasS'GGBF842'
p4393
(lp4394
(dp4395
g5
I0
sg6
S'Unspecified'
p4396
sg8
S'Green And Golden Bell Frog'
p4397
sg10
(lp4398
I8
aI24
aI219
aI207
asg12
I0
sasS'GBF227'
p4399
(lp4400
(dp4401
g5
I0
sg6
S'Unspecified'
p4402
sg8
S'Great Barred Frog'
p4403
sg10
(lp4404
I74
aI89
aI218
aI224
asg12
I1
sasS'GoldenPoisonDartFrog395'
p4405
(lp4406
(dp4407
g5
I0
sg6
S'Unspecified'
p4408
sg8
S'Golden Poison Dart Frog'
p4409
sg10
(lp4410
I13
aI50
aI186
aI208
asg12
I0
sasS'greetreefrog1154'
p4411
(lp4412
(dp4413
g5
I0
sg6
S'Unspecified'
p4414
sg8
S'Green Tree Frog'
p4415
sg10
(lp4416
I41
aI25
aI204
aI197
asg12
I0
sasS'greetreefrog1155'
p4417
(lp4418
(dp4419
g5
I0
sg6
S'Unspecified'
p4420
sg8
S'Green Tree Frog'
p4421
sg10
(lp4422
I24
aI40
aI200
aI205
asg12
I0
sasS'GGBF849'
p4423
(lp4424
(dp4425
g5
I0
sg6
S'Unspecified'
p4426
sg8
S'Green And Golden Bell Frog'
p4427
sg10
(lp4428
I74
aI94
aI148
aI144
asg12
I0
sasS'GoldenPoisonDartFrog979'
p4429
(lp4430
(dp4431
g5
I0
sg6
S'Unspecified'
p4432
sg8
S'Golden Poison Dart Frog'
p4433
sg10
(lp4434
I1
aI68
aI102
aI162
asg12
I1
sa(dp4435
g5
I0
sg6
S'Unspecified'
p4436
sg8
S'Golden Poison Dart Frog'
p4437
sg10
(lp4438
I115
aI90
aI203
aI190
asg12
I0
sasS'GBF220'
p4439
(lp4440
(dp4441
g5
I0
sg6
S'Unspecified'
p4442
sg8
S'Great Barred Frog'
p4443
sg10
(lp4444
I19
aI71
aI173
aI182
asg12
I0
sasS'CaneToad1,930'
p4445
(lp4446
(dp4447
g5
I0
sg6
S'Unspecified'
p4448
sg8
S'CaneToad'
p4449
sg10
(lp4450
I12
aI58
aI132
aI176
asg12
I0
sasS'VietnameseMossy526'
p4451
(lp4452
(dp4453
g5
I0
sg6
S'Unspecified'
p4454
sg8
S'Vietnamese Mossy Forg'
p4455
sg10
(lp4456
I22
aI70
aI107
aI166
asg12
I0
sasS'corroboreefrog649'
p4457
(lp4458
(dp4459
g5
I0
sg6
S'Unspecified'
p4460
sg8
S'Corroboree Frog'
p4461
sg10
(lp4462
I31
aI40
aI184
aI180
asg12
I0
sasS'greetreefrog609'
p4463
(lp4464
(dp4465
g5
I0
sg6
S'Unspecified'
p4466
sg8
S'Green Tree Frog'
p4467
sg10
(lp4468
I12
aI25
aI195
aI203
asg12
I0
sasS'corroboreefrog877'
p4469
(lp4470
(dp4471
g5
I0
sg6
S'Unspecified'
p4472
sg8
S'Corroboree Frog'
p4473
sg10
(lp4474
I10
aI62
aI178
aI199
asg12
I0
sasS'CaneToad1,012'
p4475
(lp4476
(dp4477
g5
I0
sg6
S'Unspecified'
p4478
sg8
S'CaneToad'
p4479
sg10
(lp4480
I2
aI10
aI224
aI172
asg12
I1
sasS'RedCrownedToadlet391'
p4481
(lp4482
(dp4483
g5
I0
sg6
S'Unspecified'
p4484
sg8
S'Red Crowned Toadlet'
p4485
sg10
(lp4486
I117
aI118
aI221
aI221
asg12
I0
sasS'CaneToad1,010'
p4487
(lp4488
(dp4489
g5
I0
sg6
S'Unspecified'
p4490
sg8
S'CaneToad'
p4491
sg10
(lp4492
I4
aI1
aI173
aI223
asg12
I1
sasS'corroboreefrog729'
p4493
(lp4494
(dp4495
g5
I0
sg6
S'Unspecified'
p4496
sg8
S'Corroboree Frog'
p4497
sg10
(lp4498
I1
aI50
aI221
aI188
asg12
I1
sasS'BluePoisonDartFrog1279'
p4499
(lp4500
(dp4501
g5
I0
sg6
S'Unspecified'
p4502
sg8
S'Blue Poison Dart Frog'
p4503
sg10
(lp4504
I53
aI70
aI177
aI164
asg12
I0
sasS'BluePoisonDartFrog662'
p4505
(lp4506
(dp4507
g5
I0
sg6
S'Unspecified'
p4508
sg8
S'Blue Poison Dart Frog'
p4509
sg10
(lp4510
I60
aI77
aI212
aI197
asg12
I0
sasS'RedCrownedToadlet560'
p4511
(lp4512
(dp4513
g5
I0
sg6
S'Unspecified'
p4514
sg8
S'Red Crowned Toadlet'
p4515
sg10
(lp4516
I24
aI23
aI194
aI192
asg12
I0
sasS'BluePoisonDartFrog666'
p4517
(lp4518
(dp4519
g5
I0
sg6
S'Unspecified'
p4520
sg8
S'Blue Poison Dart Frog'
p4521
sg10
(lp4522
I78
aI19
aI160
aI155
asg12
I0
sasS'VietnameseMossy99'
p4523
(lp4524
(dp4525
g5
I0
sg6
S'Unspecified'
p4526
sg8
S'Vietnamese Mossy Forg'
p4527
sg10
(lp4528
I55
aI7
aI174
aI218
asg12
I0
sasS'CaneToad1,155'
p4529
(lp4530
(dp4531
g5
I0
sg6
S'Unspecified'
p4532
sg8
S'CaneToad'
p4533
sg10
(lp4534
I4
aI15
aI224
aI216
asg12
I1
sasS'BluePoisonDartFrog665'
p4535
(lp4536
(dp4537
g5
I0
sg6
S'Unspecified'
p4538
sg8
S'Blue Poison Dart Frog'
p4539
sg10
(lp4540
I48
aI33
aI165
aI186
asg12
I0
sasS'GBF943'
p4541
(lp4542
(dp4543
g5
I0
sg6
S'Unspecified'
p4544
sg8
S'Great Barred Frog'
p4545
sg10
(lp4546
I43
aI1
aI219
aI190
asg12
I1
sasS'greetreefrog1809'
p4547
(lp4548
(dp4549
g5
I0
sg6
S'Unspecified'
p4550
sg8
S'Green Tree Frog'
p4551
sg10
(lp4552
I10
aI39
aI212
aI201
asg12
I0
sasS'BluePoisonDartFrog97'
p4553
(lp4554
(dp4555
g5
I0
sg6
S'Unspecified'
p4556
sg8
S'Blue Poison Dart Frog'
p4557
sg10
(lp4558
I1
aI6
aI203
aI217
asg12
I1
sasS'BluePoisonDartFrog94'
p4559
(lp4560
(dp4561
g5
I0
sg6
S'Unspecified'
p4562
sg8
S'Blue Poison Dart Frog'
p4563
sg10
(lp4564
I57
aI47
aI219
aI221
asg12
I0
sasS'corroboreefrog1501'
p4565
(lp4566
(dp4567
g5
I0
sg6
S'Unspecified'
p4568
sg8
S'Corroboree Frog'
p4569
sg10
(lp4570
I1
aI10
aI52
aI62
asg12
I1
sa(dp4571
g5
I0
sg6
S'Unspecified'
p4572
sg8
S'Corroboree Frog'
p4573
sg10
(lp4574
I125
aI70
aI192
aI131
asg12
I0
sasS'1425'
p4575
(lp4576
(dp4577
g5
I0
sg6
S'Unspecified'
p4578
sg8
S'Blue Mountains Tree Frog'
p4579
sg10
(lp4580
I70
aI55
aI186
aI199
asg12
I0
sasS'GGBF106'
p4581
(lp4582
(dp4583
g5
I0
sg6
S'Unspecified'
p4584
sg8
S'Green And Golden Bell Frog'
p4585
sg10
(lp4586
I31
aI41
aI208
aI173
asg12
I0
sasS'1426'
p4587
(lp4588
(dp4589
g5
I0
sg6
S'Unspecified'
p4590
sg8
S'Blue Mountains Tree Frog'
p4591
sg10
(lp4592
I42
aI33
aI216
aI201
asg12
I0
sasS'RedCrownedToadlet246'
p4593
(lp4594
(dp4595
g5
I0
sg6
S'Unspecified'
p4596
sg8
S'Red Crowned Toadlet'
p4597
sg10
(lp4598
I26
aI101
aI104
aI219
asg12
I0
sasS'1586'
p4599
(lp4600
(dp4601
g5
I0
sg6
S'Unspecified'
p4602
sg8
S'Blue Mountains Tree Frog'
p4603
sg10
(lp4604
I20
aI29
aI193
aI169
asg12
I0
sasS'BluePoisonDartFrog141'
p4605
(lp4606
(dp4607
g5
I0
sg6
S'Unspecified'
p4608
sg8
S'Blue Poison Dart Frog'
p4609
sg10
(lp4610
I13
aI17
aI197
aI214
asg12
I0
sasS'RedEyed756'
p4611
(lp4612
(dp4613
g5
I0
sg6
S'Unspecified'
p4614
sg8
S'Red Eyed Tree Frog'
p4615
sg10
(lp4616
I64
aI25
aI198
aI180
asg12
I0
sasS'VietnameseMossy776'
p4617
(lp4618
(dp4619
g5
I0
sg6
S'Unspecified'
p4620
sg8
S'Vietnamese Mossy Forg'
p4621
sg10
(lp4622
I54
aI70
aI178
aI175
asg12
I0
sasS'RedCrownedToadlet992'
p4623
(lp4624
(dp4625
g5
I0
sg6
S'Unspecified'
p4626
sg8
S'Red Crowned Toadlet'
p4627
sg10
(lp4628
I24
aI28
aI162
aI210
asg12
I0
sasS'greetreefrog1805'
p4629
(lp4630
(dp4631
g5
I0
sg6
S'Unspecified'
p4632
sg8
S'Green Tree Frog'
p4633
sg10
(lp4634
I4
aI12
aI163
aI211
asg12
I0
sasS'RedEyed692'
p4635
(lp4636
(dp4637
g5
I0
sg6
S'Unspecified'
p4638
sg8
S'Red Eyed Tree Frog'
p4639
sg10
(lp4640
I18
aI43
aI156
aI128
asg12
I0
sasS'1031'
p4641
(lp4642
(dp4643
g5
I0
sg6
S'Unspecified'
p4644
sg8
S'Blue Mountains Tree Frog'
p4645
sg10
(lp4646
I2
aI11
aI220
aI207
asg12
I0
sasS'GGBF6'
p4647
(lp4648
(dp4649
g5
I0
sg6
S'Unspecified'
p4650
sg8
S'Green And Golden Bell Frog'
p4651
sg10
(lp4652
I20
aI6
aI207
aI211
asg12
I0
sasS'501'
p4653
(lp4654
(dp4655
g5
I0
sg6
S'Unspecified'
p4656
sg8
S'Blue Mountains Tree Frog'
p4657
sg10
(lp4658
I60
aI4
aI207
aI145
asg12
I0
sasS'corroboreefrog864'
p4659
(lp4660
(dp4661
g5
I0
sg6
S'Unspecified'
p4662
sg8
S'Corroboree Frog'
p4663
sg10
(lp4664
I64
aI23
aI173
aI175
asg12
I0
sasS'greetreefrog4'
p4665
(lp4666
(dp4667
g5
I0
sg6
S'Unspecified'
p4668
sg8
S'Green Tree Frog'
p4669
sg10
(lp4670
I5
aI41
aI217
aI212
asg12
I0
sasS'1358'
p4671
(lp4672
(dp4673
g5
I0
sg6
S'Unspecified'
p4674
sg8
S'Blue Mountains Tree Frog'
p4675
sg10
(lp4676
I56
aI33
aI178
aI193
asg12
I0
sasS'RedCrownedToadlet149'
p4677
(lp4678
(dp4679
g5
I0
sg6
S'Unspecified'
p4680
sg8
S'Red Crowned Toadlet'
p4681
sg10
(lp4682
I42
aI28
aI176
aI199
asg12
I0
sasS'906'
p4683
(lp4684
(dp4685
g5
I0
sg6
S'Unspecified'
p4686
sg8
S'Blue Mountains Tree Frog'
p4687
sg10
(lp4688
I31
aI107
aI184
aI187
asg12
I0
sasS'RedCrownedToadlet418'
p4689
(lp4690
(dp4691
g5
I0
sg6
S'Unspecified'
p4692
sg8
S'Red Crowned Toadlet'
p4693
sg10
(lp4694
I38
aI61
aI224
aI177
asg12
I1
sasS'CaneToad1,845'
p4695
(lp4696
(dp4697
g5
I0
sg6
S'Unspecified'
p4698
sg8
S'CaneToad'
p4699
sg10
(lp4700
I4
aI18
aI174
aI150
asg12
I0
sasS'CaneToad1,336'
p4701
(lp4702
(dp4703
g5
I0
sg6
S'Unspecified'
p4704
sg8
S'CaneToad'
p4705
sg10
(lp4706
I82
aI9
aI219
aI243
asg12
I0
sasS'467'
p4707
(lp4708
(dp4709
g5
I0
sg6
S'Unspecified'
p4710
sg8
S'Blue Mountains Tree Frog'
p4711
sg10
(lp4712
I72
aI42
aI186
aI205
asg12
I0
sasS'BluePoisonDartFrog240'
p4713
(lp4714
(dp4715
g5
I0
sg6
S'Unspecified'
p4716
sg8
S'Blue Poison Dart Frog'
p4717
sg10
(lp4718
I25
aI19
aI180
aI186
asg12
I0
sasS'GGBF16'
p4719
(lp4720
(dp4721
g5
I0
sg6
S'Unspecified'
p4722
sg8
S'Green And Golden Bell Frog'
p4723
sg10
(lp4724
I6
aI30
aI224
aI185
asg12
I1
sasS'BluePoisonDartFrog242'
p4725
(lp4726
(dp4727
g5
I0
sg6
S'Unspecified'
p4728
sg8
S'Blue Poison Dart Frog'
p4729
sg10
(lp4730
I64
aI62
aI176
aI187
asg12
I0
sasS'1354'
p4731
(lp4732
(dp4733
g5
I0
sg6
S'Unspecified'
p4734
sg8
S'Blue Mountains Tree Frog'
p4735
sg10
(lp4736
I31
aI54
aI188
aI175
asg12
I0
sasS'GBF763'
p4737
(lp4738
(dp4739
g5
I0
sg6
S'Unspecified'
p4740
sg8
S'Great Barred Frog'
p4741
sg10
(lp4742
I9
aI7
aI175
aI216
asg12
I0
sasS'BluePoisonDartFrog1458'
p4743
(lp4744
(dp4745
g5
I0
sg6
S'Unspecified'
p4746
sg8
S'Blue Poison Dart Frog'
p4747
sg10
(lp4748
I80
aI65
aI154
aI164
asg12
I0
sasS'BluePoisonDartFrog323'
p4749
(lp4750
(dp4751
g5
I0
sg6
S'Unspecified'
p4752
sg8
S'Blue Poison Dart Frog'
p4753
sg10
(lp4754
I43
aI39
aI109
aI126
asg12
I0
sasS'RedEyed916'
p4755
(lp4756
(dp4757
g5
I0
sg6
S'Unspecified'
p4758
sg8
S'Red Eyed Tree Frog'
p4759
sg10
(lp4760
I58
aI32
aI189
aI185
asg12
I0
sasS'BluePoisonDartFrog1453'
p4761
(lp4762
(dp4763
g5
I0
sg6
S'Unspecified'
p4764
sg8
S'Blue Poison Dart Frog'
p4765
sg10
(lp4766
I30
aI51
aI174
aI181
asg12
I0
sasS'BluePoisonDartFrog898'
p4767
(lp4768
(dp4769
g5
I0
sg6
S'Unspecified'
p4770
sg8
S'Blue Poison Dart Frog'
p4771
sg10
(lp4772
I8
aI15
aI221
aI207
asg12
I0
sasS'greetreefrog1803'
p4773
(lp4774
(dp4775
g5
I0
sg6
S'Unspecified'
p4776
sg8
S'Green Tree Frog'
p4777
sg10
(lp4778
I57
aI16
aI214
aI218
asg12
I0
sasS'GoldenPoisonDartFrog186'
p4779
(lp4780
(dp4781
g5
I0
sg6
S'Unspecified'
p4782
sg8
S'Golden Poison Dart Frog'
p4783
sg10
(lp4784
I27
aI19
aI187
aI192
asg12
I0
sasS'VietnameseMossy137'
p4785
(lp4786
(dp4787
g5
I0
sg6
S'Unspecified'
p4788
sg8
S'Vietnamese Mossy Forg'
p4789
sg10
(lp4790
I42
aI26
aI206
aI143
asg12
I0
sasS'GGBF422'
p4791
(lp4792
(dp4793
g5
I0
sg6
S'Unspecified'
p4794
sg8
S'Green And Golden Bell Frog'
p4795
sg10
(lp4796
I2
aI4
aI224
aI220
asg12
I1
sasS'GBF319'
p4797
(lp4798
(dp4799
g5
I0
sg6
S'Unspecified'
p4800
sg8
S'Great Barred Frog'
p4801
sg10
(lp4802
I49
aI93
aI176
aI160
asg12
I0
sasS'RedEyed442'
p4803
(lp4804
(dp4805
g5
I0
sg6
S'Unspecified'
p4806
sg8
S'Red Eyed Tree Frog'
p4807
sg10
(lp4808
I53
aI50
aI223
aI192
asg12
I0
sasS'GGBF426'
p4809
(lp4810
(dp4811
g5
I0
sg6
S'Unspecified'
p4812
sg8
S'Green And Golden Bell Frog'
p4813
sg10
(lp4814
I37
aI50
aI199
aI200
asg12
I0
sasS'RedCrownedToadlet734'
p4815
(lp4816
(dp4817
g5
I0
sg6
S'Unspecified'
p4818
sg8
S'Red Crowned Toadlet'
p4819
sg10
(lp4820
I25
aI34
aI212
aI156
asg12
I0
sasS'GBF313'
p4821
(lp4822
(dp4823
g5
I0
sg6
S'Unspecified'
p4824
sg8
S'Great Barred Frog'
p4825
sg10
(lp4826
I23
aI11
aI185
aI181
asg12
I0
sasS'GGBF743'
p4827
(lp4828
(dp4829
g5
I0
sg6
S'Unspecified'
p4830
sg8
S'Green And Golden Bell Frog'
p4831
sg10
(lp4832
I27
aI12
aI207
aI217
asg12
I0
sasS'GGBF429'
p4833
(lp4834
(dp4835
g5
I0
sg6
S'Unspecified'
p4836
sg8
S'Green And Golden Bell Frog'
p4837
sg10
(lp4838
I54
aI51
aI165
aI177
asg12
I0
sasS'GBF310'
p4839
(lp4840
(dp4841
g5
I0
sg6
S'Unspecified'
p4842
sg8
S'Great Barred Frog'
p4843
sg10
(lp4844
I26
aI22
aI210
aI195
asg12
I0
sasS'968'
p4845
(lp4846
(dp4847
g5
I0
sg6
S'Unspecified'
p4848
sg8
S'Blue Mountains Tree Frog'
p4849
sg10
(lp4850
I127
aI125
aI198
aI205
asg12
I0
sasS'GGBF747'
p4851
(lp4852
(dp4853
g5
I0
sg6
S'Unspecified'
p4854
sg8
S'Green And Golden Bell Frog'
p4855
sg10
(lp4856
I36
aI25
aI144
aI147
asg12
I0
sasS'GGBF744'
p4857
(lp4858
(dp4859
g5
I0
sg6
S'Unspecified'
p4860
sg8
S'Green And Golden Bell Frog'
p4861
sg10
(lp4862
I67
aI68
aI153
aI133
asg12
I0
sasS'RedEyed526'
p4863
(lp4864
(dp4865
g5
I0
sg6
S'Unspecified'
p4866
sg8
S'Red Eyed Tree Frog'
p4867
sg10
(lp4868
I95
aI58
aI137
aI87
asg12
I0
sasS'RedCrownedToadlet770'
p4869
(lp4870
(dp4871
g5
I0
sg6
S'Unspecified'
p4872
sg8
S'Red Crowned Toadlet'
p4873
sg10
(lp4874
I33
aI65
aI197
aI174
asg12
I0
sasS'1457'
p4875
(lp4876
(dp4877
g5
I0
sg6
S'Unspecified'
p4878
sg8
S'Blue Mountains Tree Frog'
p4879
sg10
(lp4880
I19
aI41
aI203
aI212
asg12
I0
sasS'VietnameseMossy594'
p4881
(lp4882
(dp4883
g5
I0
sg6
S'Unspecified'
p4884
sg8
S'Vietnamese Mossy Forg'
p4885
sg10
(lp4886
I61
aI74
aI159
aI199
asg12
I0
sasS'VietnameseMossy596'
p4887
(lp4888
(dp4889
g5
I0
sg6
S'Unspecified'
p4890
sg8
S'Vietnamese Mossy Forg'
p4891
sg10
(lp4892
I2
aI59
aI220
aI215
asg12
I0
sasS'VietnameseMossy598'
p4893
(lp4894
(dp4895
g5
I0
sg6
S'Unspecified'
p4896
sg8
S'Vietnamese Mossy Forg'
p4897
sg10
(lp4898
I16
aI20
aI200
aI207
asg12
I0
sasS'GoldenPoisonDartFrog95'
p4899
(lp4900
(dp4901
g5
I0
sg6
S'Unspecified'
p4902
sg8
S'Golden Poison Dart Frog'
p4903
sg10
(lp4904
I59
aI51
aI134
aI133
asg12
I0
sasS'BluePoisonDartFrog1065'
p4905
(lp4906
(dp4907
g5
I0
sg6
S'Unspecified'
p4908
sg8
S'Blue Poison Dart Frog'
p4909
sg10
(lp4910
I9
aI48
aI212
aI182
asg12
I0
sasS'1459'
p4911
(lp4912
(dp4913
g5
I0
sg6
S'Unspecified'
p4914
sg8
S'Blue Mountains Tree Frog'
p4915
sg10
(lp4916
I60
aI18
aI224
aI177
asg12
I1
sasS'corroboreefrog1052'
p4917
(lp4918
(dp4919
g5
I0
sg6
S'Unspecified'
p4920
sg8
S'Corroboree Frog'
p4921
sg10
(lp4922
I22
aI39
aI178
aI200
asg12
I0
sasS'RedEyed509'
p4923
(lp4924
(dp4925
g5
I0
sg6
S'Unspecified'
p4926
sg8
S'Red Eyed Tree Frog'
p4927
sg10
(lp4928
I4
aI17
aI216
aI211
asg12
I0
sasS'RedCrownedToadlet242'
p4929
(lp4930
(dp4931
g5
I0
sg6
S'Unspecified'
p4932
sg8
S'Red Crowned Toadlet'
p4933
sg10
(lp4934
I65
aI28
aI186
aI188
asg12
I0
sasS'RedEyed115'
p4935
(lp4936
(dp4937
g5
I0
sg6
S'Unspecified'
p4938
sg8
S'Red Eyed Tree Frog'
p4939
sg10
(lp4940
I1
aI39
aI223
aI147
asg12
I1
sasS'BluePoisonDartFrog1428'
p4941
(lp4942
(dp4943
g5
I0
sg6
S'Unspecified'
p4944
sg8
S'Blue Poison Dart Frog'
p4945
sg10
(lp4946
I66
aI74
aI166
aI198
asg12
I0
sasS'GoldenPoisonDartFrog615'
p4947
(lp4948
(dp4949
g5
I0
sg6
S'Unspecified'
p4950
sg8
S'Golden Poison Dart Frog'
p4951
sg10
(lp4952
I35
aI13
aI192
aI198
asg12
I0
sasS'RedEyed765'
p4953
(lp4954
(dp4955
g5
I0
sg6
S'Unspecified'
p4956
sg8
S'Red Eyed Tree Frog'
p4957
sg10
(lp4958
I62
aI2
aI219
aI156
asg12
I0
sasS'greetreefrog593'
p4959
(lp4960
(dp4961
g5
I0
sg6
S'Unspecified'
p4962
sg8
S'Green Tree Frog'
p4963
sg10
(lp4964
I4
aI10
aI157
aI166
asg12
I0
sasS'greetreefrog1721'
p4965
(lp4966
(dp4967
g5
I0
sg6
S'Unspecified'
p4968
sg8
S'Green Tree Frog'
p4969
sg10
(lp4970
I28
aI34
aI200
aI205
asg12
I0
sasS'GoldenPoisonDartFrog283'
p4971
(lp4972
(dp4973
g5
I0
sg6
S'Unspecified'
p4974
sg8
S'Golden Poison Dart Frog'
p4975
sg10
(lp4976
I22
aI14
aI220
aI221
asg12
I0
sasS'VietnameseMossy790'
p4977
(lp4978
(dp4979
g5
I0
sg6
S'Unspecified'
p4980
sg8
S'Vietnamese Mossy Forg'
p4981
sg10
(lp4982
I37
aI47
aI179
aI209
asg12
I0
sasS'corroboreefrog261'
p4983
(lp4984
(dp4985
g5
I0
sg6
S'Unspecified'
p4986
sg8
S'Corroboree Frog'
p4987
sg10
(lp4988
I45
aI60
aI179
aI192
asg12
I0
sasS'GoldenPoisonDartFrog1206'
p4989
(lp4990
(dp4991
g5
I0
sg6
S'Unspecified'
p4992
sg8
S'Golden Poison Dart Frog'
p4993
sg10
(lp4994
I120
aI3
aI200
aI167
asg12
I0
sa(dp4995
g5
I0
sg6
S'Unspecified'
p4996
sg8
S'Golden Poison Dart Frog'
p4997
sg10
(lp4998
I50
aI51
aI118
aI195
asg12
I0
sasS'1814'
p4999
(lp5000
(dp5001
g5
I0
sg6
S'Unspecified'
p5002
sg8
S'Blue Mountains Tree Frog'
p5003
sg10
(lp5004
I69
aI14
aI162
aI169
asg12
I0
sasS'CaneToad1,630'
p5005
(lp5006
(dp5007
g5
I0
sg6
S'Unspecified'
p5008
sg8
S'CaneToad'
p5009
sg10
(lp5010
I15
aI68
aI182
aI194
asg12
I0
sasS'GGBF537'
p5011
(lp5012
(dp5013
g5
I0
sg6
S'Unspecified'
p5014
sg8
S'Green And Golden Bell Frog'
p5015
sg10
(lp5016
I159
aI77
aI222
aI131
asg12
I0
sasS'GoldenPoisonDartFrog947'
p5017
(lp5018
(dp5019
g5
I0
sg6
S'Unspecified'
p5020
sg8
S'Golden Poison Dart Frog'
p5021
sg10
(lp5022
I45
aI25
aI182
aI184
asg12
I0
sasS'corroboreefrog313'
p5023
(lp5024
(dp5025
g5
I0
sg6
S'Unspecified'
p5026
sg8
S'Corroboree Frog'
p5027
sg10
(lp5028
I35
aI50
aI224
aI195
asg12
I1
sasS'corroboreefrog833'
p5029
(lp5030
(dp5031
g5
I0
sg6
S'Unspecified'
p5032
sg8
S'Corroboree Frog'
p5033
sg10
(lp5034
I48
aI87
aI204
aI224
asg12
I1
sasS'GoldenPoisonDartFrog600'
p5035
(lp5036
(dp5037
g5
I0
sg6
S'Unspecified'
p5038
sg8
S'Golden Poison Dart Frog'
p5039
sg10
(lp5040
I34
aI58
aI110
aI202
asg12
I0
sa(dp5041
g5
I0
sg6
S'Unspecified'
p5042
sg8
S'Golden Poison Dart Frog'
p5043
sg10
(lp5044
I117
aI39
aI169
aI164
asg12
I0
sasS'GoldenPoisonDartFrog769'
p5045
(lp5046
(dp5047
g5
I0
sg6
S'Unspecified'
p5048
sg8
S'Golden Poison Dart Frog'
p5049
sg10
(lp5050
I146
aI123
aI223
aI201
asg12
I0
sasS'870'
p5051
(lp5052
(dp5053
g5
I0
sg6
S'Unspecified'
p5054
sg8
S'Blue Mountains Tree Frog'
p5055
sg10
(lp5056
I32
aI97
aI201
aI191
asg12
I0
sasS'corroboreefrog1609'
p5057
(lp5058
(dp5059
g5
I0
sg6
S'Unspecified'
p5060
sg8
S'Corroboree Frog'
p5061
sg10
(lp5062
I12
aI37
aI190
aI204
asg12
I0
sasS'RedCrownedToadlet559'
p5063
(lp5064
(dp5065
g5
I0
sg6
S'Unspecified'
p5066
sg8
S'Red Crowned Toadlet'
p5067
sg10
(lp5068
I19
aI31
aI204
aI183
asg12
I0
sasS'GoldenPoisonDartFrog1077'
p5069
(lp5070
(dp5071
g5
I0
sg6
S'Unspecified'
p5072
sg8
S'Golden Poison Dart Frog'
p5073
sg10
(lp5074
I39
aI20
aI215
aI224
asg12
I1
sasS'procVietnameseMossy921'
p5075
(lp5076
(dp5077
g5
I0
sg6
S'Unspecified'
p5078
sg8
S'Vietnamese Mossy Forg'
p5079
sg10
(lp5080
I34
aI27
aI198
aI217
asg12
I0
sasS'GoldenPoisonDartFrog1072'
p5081
(lp5082
(dp5083
g5
I0
sg6
S'Unspecified'
p5084
sg8
S'Golden Poison Dart Frog'
p5085
sg10
(lp5086
I18
aI47
aI121
aI164
asg12
I0
sa(dp5087
g5
I0
sg6
S'Unspecified'
p5088
sg8
S'Golden Poison Dart Frog'
p5089
sg10
(lp5090
I137
aI35
aI220
aI164
asg12
I0
sasS'corroboreefrog1601'
p5091
(lp5092
(dp5093
g5
I0
sg6
S'Unspecified'
p5094
sg8
S'Corroboree Frog'
p5095
sg10
(lp5096
I46
aI70
aI170
aI204
asg12
I0
sasS'GGBF736'
p5097
(lp5098
(dp5099
g5
I0
sg6
S'Unspecified'
p5100
sg8
S'Green And Golden Bell Frog'
p5101
sg10
(lp5102
I29
aI86
aI136
aI149
asg12
I0
sasS'greetreefrog1275'
p5103
(lp5104
(dp5105
g5
I0
sg6
S'Unspecified'
p5106
sg8
S'Green Tree Frog'
p5107
sg10
(lp5108
I1
aI43
aI204
aI156
asg12
I1
sasS'greetreefrog516'
p5109
(lp5110
(dp5111
g5
I0
sg6
S'Unspecified'
p5112
sg8
S'Green Tree Frog'
p5113
sg10
(lp5114
I79
aI15
aI224
aI215
asg12
I1
sasS'VietnameseMossy339'
p5115
(lp5116
(dp5117
g5
I0
sg6
S'Unspecified'
p5118
sg8
S'Vietnamese Mossy Forg'
p5119
sg10
(lp5120
I15
aI19
aI218
aI185
asg12
I0
sasS'RedEyed969'
p5121
(lp5122
(dp5123
g5
I0
sg6
S'Unspecified'
p5124
sg8
S'Red Eyed Tree Frog'
p5125
sg10
(lp5126
I26
aI11
aI155
aI109
asg12
I0
sasS'greetreefrog397'
p5127
(lp5128
(dp5129
g5
I0
sg6
S'Unspecified'
p5130
sg8
S'Green Tree Frog'
p5131
sg10
(lp5132
I22
aI23
aI220
aI223
asg12
I0
sasS'greetreefrog930'
p5133
(lp5134
(dp5135
g5
I0
sg6
S'Unspecified'
p5136
sg8
S'Green Tree Frog'
p5137
sg10
(lp5138
I35
aI45
aI178
aI198
asg12
I0
sasS'1156'
p5139
(lp5140
(dp5141
g5
I0
sg6
S'Unspecified'
p5142
sg8
S'Blue Mountains Tree Frog'
p5143
sg10
(lp5144
I25
aI27
aI218
aI187
asg12
I0
sasS'GoldenPoisonDartFrog698'
p5145
(lp5146
(dp5147
g5
I0
sg6
S'Unspecified'
p5148
sg8
S'Golden Poison Dart Frog'
p5149
sg10
(lp5150
I14
aI35
aI177
aI144
asg12
I0
sasS'CaneToad2,025'
p5151
(lp5152
(dp5153
g5
I0
sg6
S'Unspecified'
p5154
sg8
S'CaneToad'
p5155
sg10
(lp5156
I39
aI56
aI143
aI180
asg12
I0
sasS'RedEyed651'
p5157
(lp5158
(dp5159
g5
I0
sg6
S'Unspecified'
p5160
sg8
S'Red Eyed Tree Frog'
p5161
sg10
(lp5162
I50
aI34
aI166
aI134
asg12
I0
sasS'greetreefrog785'
p5163
(lp5164
(dp5165
g5
I0
sg6
S'Unspecified'
p5166
sg8
S'Green Tree Frog'
p5167
sg10
(lp5168
I30
aI14
aI176
aI175
asg12
I0
sasS'corroboreefrog947'
p5169
(lp5170
(dp5171
g5
I0
sg6
S'Unspecified'
p5172
sg8
S'Corroboree Frog'
p5173
sg10
(lp5174
I69
aI53
aI211
aI191
asg12
I0
sasS'GGBF812'
p5175
(lp5176
(dp5177
g5
I0
sg6
S'Unspecified'
p5178
sg8
S'Green And Golden Bell Frog'
p5179
sg10
(lp5180
I34
aI16
aI216
aI209
asg12
I0
sasS'GGBF810'
p5181
(lp5182
(dp5183
g5
I0
sg6
S'Unspecified'
p5184
sg8
S'Green And Golden Bell Frog'
p5185
sg10
(lp5186
I37
aI24
aI194
aI177
asg12
I0
sasS'GGBF811'
p5187
(lp5188
(dp5189
g5
I0
sg6
S'Unspecified'
p5190
sg8
S'Green And Golden Bell Frog'
p5191
sg10
(lp5192
I75
aI27
aI148
aI215
asg12
I0
sasS'greetreefrog473'
p5193
(lp5194
(dp5195
g5
I0
sg6
S'Unspecified'
p5196
sg8
S'Green Tree Frog'
p5197
sg10
(lp5198
I52
aI7
aI207
aI185
asg12
I0
sasS'GBF277'
p5199
(lp5200
(dp5201
g5
I0
sg6
S'Unspecified'
p5202
sg8
S'Great Barred Frog'
p5203
sg10
(lp5204
I19
aI4
aI212
aI213
asg12
I0
sasS'greetreefrog1269'
p5205
(lp5206
(dp5207
g5
I0
sg6
S'Unspecified'
p5208
sg8
S'Green Tree Frog'
p5209
sg10
(lp5210
I66
aI33
aI165
aI215
asg12
I0
sasS'corroboreefrog161'
p5211
(lp5212
(dp5213
g5
I0
sg6
S'Unspecified'
p5214
sg8
S'Corroboree Frog'
p5215
sg10
(lp5216
I62
aI46
aI148
aI99
asg12
I0
sasS'VietnameseMossy725'
p5217
(lp5218
(dp5219
g5
I0
sg6
S'Unspecified'
p5220
sg8
S'Vietnamese Mossy Forg'
p5221
sg10
(lp5222
I53
aI28
aI199
aI178
asg12
I0
sasS'BluePoisonDartFrog1286'
p5223
(lp5224
(dp5225
g5
I0
sg6
S'Unspecified'
p5226
sg8
S'Blue Poison Dart Frog'
p5227
sg10
(lp5228
I62
aI67
aI199
aI194
asg12
I0
sasS'greetreefrog1490'
p5229
(lp5230
(dp5231
g5
I0
sg6
S'Unspecified'
p5232
sg8
S'Green Tree Frog'
p5233
sg10
(lp5234
I35
aI57
aI123
aI223
asg12
I0
sasS'GoldenPoisonDartFrog113'
p5235
(lp5236
(dp5237
g5
I0
sg6
S'Unspecified'
p5238
sg8
S'Golden Poison Dart Frog'
p5239
sg10
(lp5240
I48
aI9
aI215
aI188
asg12
I0
sasS'RedEyed160'
p5241
(lp5242
(dp5243
g5
I0
sg6
S'Unspecified'
p5244
sg8
S'Red Eyed Tree Frog'
p5245
sg10
(lp5246
I1
aI2
aI198
aI149
asg12
I1
sasS'VietnameseMossy176'
p5247
(lp5248
(dp5249
g5
I0
sg6
S'Unspecified'
p5250
sg8
S'Vietnamese Mossy Forg'
p5251
sg10
(lp5252
I26
aI14
aI212
aI182
asg12
I0
sasS'CaneToad1,525'
p5253
(lp5254
(dp5255
g5
I0
sg6
S'Unspecified'
p5256
sg8
S'CaneToad'
p5257
sg10
(lp5258
I45
aI18
aI200
aI182
asg12
I0
sasS'corroboreefrog1732'
p5259
(lp5260
(dp5261
g5
I0
sg6
S'Unspecified'
p5262
sg8
S'Corroboree Frog'
p5263
sg10
(lp5264
I8
aI104
aI116
aI224
asg12
I1
sasS'BluePoisonDartFrog936'
p5265
(lp5266
(dp5267
g5
I0
sg6
S'Unspecified'
p5268
sg8
S'Blue Poison Dart Frog'
p5269
sg10
(lp5270
I2
aI24
aI95
aI211
asg12
I0
sasS'corroboreefrog44'
p5271
(lp5272
(dp5273
g5
I0
sg6
S'Unspecified'
p5274
sg8
S'Corroboree Frog'
p5275
sg10
(lp5276
I22
aI9
aI213
aI204
asg12
I0
sasS'greetreefrog302'
p5277
(lp5278
(dp5279
g5
I0
sg6
S'Unspecified'
p5280
sg8
S'Green Tree Frog'
p5281
sg10
(lp5282
I51
aI69
aI184
aI203
asg12
I0
sasS'corroboreefrog42'
p5283
(lp5284
(dp5285
g5
I0
sg6
S'Unspecified'
p5286
sg8
S'Corroboree Frog'
p5287
sg10
(lp5288
I9
aI23
aI202
aI206
asg12
I0
sasS'greetreefrog308'
p5289
(lp5290
(dp5291
g5
I0
sg6
S'Unspecified'
p5292
sg8
S'Green Tree Frog'
p5293
sg10
(lp5294
I25
aI100
aI93
aI181
asg12
I0
sasS'VietnameseMossy706'
p5295
(lp5296
(dp5297
g5
I0
sg6
S'Unspecified'
p5298
sg8
S'Vietnamese Mossy Forg'
p5299
sg10
(lp5300
I18
aI2
aI220
aI203
asg12
I0
sasS'GGBF557'
p5301
(lp5302
(dp5303
g5
I0
sg6
S'Unspecified'
p5304
sg8
S'Green And Golden Bell Frog'
p5305
sg10
(lp5306
I6
aI2
aI224
aI215
asg12
I1
sasS'GGBF884'
p5307
(lp5308
(dp5309
g5
I0
sg6
S'Unspecified'
p5310
sg8
S'Green And Golden Bell Frog'
p5311
sg10
(lp5312
I88
aI95
aI165
aI145
asg12
I0
sasS'GGBF555'
p5313
(lp5314
(dp5315
g5
I0
sg6
S'Unspecified'
p5316
sg8
S'Green And Golden Bell Frog'
p5317
sg10
(lp5318
I18
aI23
aI220
aI218
asg12
I0
sasS'BluePoisonDartFrog939'
p5319
(lp5320
(dp5321
g5
I0
sg6
S'Unspecified'
p5322
sg8
S'Blue Poison Dart Frog'
p5323
sg10
(lp5324
I7
aI1
aI216
aI195
asg12
I1
sasS'greetreefrog644'
p5325
(lp5326
(dp5327
g5
I0
sg6
S'Unspecified'
p5328
sg8
S'Green Tree Frog'
p5329
sg10
(lp5330
I5
aI26
aI185
aI215
asg12
I0
sasS'GoldenPoisonDartFrog505'
p5331
(lp5332
(dp5333
g5
I0
sg6
S'Unspecified'
p5334
sg8
S'Golden Poison Dart Frog'
p5335
sg10
(lp5336
I52
aI33
aI183
aI129
asg12
I0
sasS'210'
p5337
(lp5338
(dp5339
g5
I0
sg6
S'Unspecified'
p5340
sg8
S'Blue Mountains Tree Frog'
p5341
sg10
(lp5342
I29
aI35
aI211
aI169
asg12
I0
sasS'CaneToad1,110'
p5343
(lp5344
(dp5345
g5
I0
sg6
S'Unspecified'
p5346
sg8
S'CaneToad'
p5347
sg10
(lp5348
I76
aI23
aI220
aI186
asg12
I0
sasS'763'
p5349
(lp5350
(dp5351
g5
I0
sg6
S'Unspecified'
p5352
sg8
S'Blue Mountains Tree Frog'
p5353
sg10
(lp5354
I1
aI7
aI213
aI202
asg12
I1
sasS'corroboreefrog765'
p5355
(lp5356
(dp5357
g5
I0
sg6
S'Unspecified'
p5358
sg8
S'Corroboree Frog'
p5359
sg10
(lp5360
I5
aI60
aI224
aI223
asg12
I1
sasS'GBF982'
p5361
(lp5362
(dp5363
g5
I0
sg6
S'Unspecified'
p5364
sg8
S'Great Barred Frog'
p5365
sg10
(lp5366
I42
aI39
aI165
aI164
asg12
I0
sasS'greetreefrog499'
p5367
(lp5368
(dp5369
g5
I0
sg6
S'Unspecified'
p5370
sg8
S'Green Tree Frog'
p5371
sg10
(lp5372
I31
aI10
aI191
aI129
asg12
I0
sasS'RedCrownedToadlet334'
p5373
(lp5374
(dp5375
g5
I0
sg6
S'Unspecified'
p5376
sg8
S'Red Crowned Toadlet'
p5377
sg10
(lp5378
I22
aI43
aI215
aI215
asg12
I0
sasS'greetreefrog944'
p5379
(lp5380
(dp5381
g5
I0
sg6
S'Unspecified'
p5382
sg8
S'Green Tree Frog'
p5383
sg10
(lp5384
I26
aI32
aI217
aI212
asg12
I0
sasS'CaneToad2,051'
p5385
(lp5386
(dp5387
g5
I0
sg6
S'Unspecified'
p5388
sg8
S'CaneToad'
p5389
sg10
(lp5390
I76
aI42
aI169
aI94
asg12
I0
sasS'RedEyed290'
p5391
(lp5392
(dp5393
g5
I0
sg6
S'Unspecified'
p5394
sg8
S'Red Eyed Tree Frog'
p5395
sg10
(lp5396
I17
aI42
aI194
aI223
asg12
I0
sasS'RedCrownedToadlet710'
p5397
(lp5398
(dp5399
g5
I0
sg6
S'Unspecified'
p5400
sg8
S'Red Crowned Toadlet'
p5401
sg10
(lp5402
I14
aI63
aI77
aI179
asg12
I0
sa(dp5403
g5
I0
sg6
S'Unspecified'
p5404
sg8
S'Red Crowned Toadlet'
p5405
sg10
(lp5406
I105
aI1
aI213
aI149
asg12
I1
sasS'GoldenPoisonDartFrog47'
p5407
(lp5408
(dp5409
g5
I0
sg6
S'Unspecified'
p5410
sg8
S'Golden Poison Dart Frog'
p5411
sg10
(lp5412
I22
aI66
aI99
aI167
asg12
I0
sasS'BluePoisonDartFrog503'
p5413
(lp5414
(dp5415
g5
I0
sg6
S'Unspecified'
p5416
sg8
S'Blue Poison Dart Frog'
p5417
sg10
(lp5418
I42
aI41
aI177
aI180
asg12
I0
sasS'greetreefrog496'
p5419
(lp5420
(dp5421
g5
I0
sg6
S'Unspecified'
p5422
sg8
S'Green Tree Frog'
p5423
sg10
(lp5424
I37
aI29
aI207
aI171
asg12
I0
sasS'corroboreefrog1421'
p5425
(lp5426
(dp5427
g5
I0
sg6
S'Unspecified'
p5428
sg8
S'Corroboree Frog'
p5429
sg10
(lp5430
I4
aI31
aI108
aI132
asg12
I0
sasS'BluePoisonDartFrog58'
p5431
(lp5432
(dp5433
g5
I0
sg6
S'Unspecified'
p5434
sg8
S'Blue Poison Dart Frog'
p5435
sg10
(lp5436
I93
aI16
aI206
aI217
asg12
I0
sasS'RedCrownedToadlet1009'
p5437
(lp5438
(dp5439
g5
I0
sg6
S'Unspecified'
p5440
sg8
S'Red Crowned Toadlet'
p5441
sg10
(lp5442
I30
aI63
aI107
aI121
asg12
I0
sasS'CaneToad1,987'
p5443
(lp5444
(dp5445
g5
I0
sg6
S'Unspecified'
p5446
sg8
S'CaneToad'
p5447
sg10
(lp5448
I62
aI5
aI203
aI216
asg12
I0
sasS'1076'
p5449
(lp5450
(dp5451
g5
I0
sg6
S'Unspecified'
p5452
sg8
S'Blue Mountains Tree Frog'
p5453
sg10
(lp5454
I46
aI3
aI197
aI208
asg12
I0
sasS'RedCrownedToadlet67'
p5455
(lp5456
(dp5457
g5
I0
sg6
S'Unspecified'
p5458
sg8
S'Red Crowned Toadlet'
p5459
sg10
(lp5460
I10
aI1
aI224
aI184
asg12
I1
sasS'GoldenPoisonDartFrog464'
p5461
(lp5462
(dp5463
g5
I0
sg6
S'Unspecified'
p5464
sg8
S'Golden Poison Dart Frog'
p5465
sg10
(lp5466
I60
aI67
aI145
aI161
asg12
I0
sasS'GGBF245'
p5467
(lp5468
(dp5469
g5
I0
sg6
S'Unspecified'
p5470
sg8
S'Green And Golden Bell Frog'
p5471
sg10
(lp5472
I11
aI10
aI219
aI191
asg12
I0
sasS'RedCrownedToadlet631'
p5473
(lp5474
(dp5475
g5
I0
sg6
S'Unspecified'
p5476
sg8
S'Red Crowned Toadlet'
p5477
sg10
(lp5478
I62
aI49
aI201
aI181
asg12
I0
sasS'VietnameseMossy633'
p5479
(lp5480
(dp5481
g5
I0
sg6
S'Unspecified'
p5482
sg8
S'Vietnamese Mossy Forg'
p5483
sg10
(lp5484
I75
aI91
aI144
aI192
asg12
I0
sasS'VietnameseMossy635'
p5485
(lp5486
(dp5487
g5
I0
sg6
S'Unspecified'
p5488
sg8
S'Vietnamese Mossy Forg'
p5489
sg10
(lp5490
I6
aI18
aI201
aI168
asg12
I0
sasS'1679'
p5491
(lp5492
(dp5493
g5
I0
sg6
S'Unspecified'
p5494
sg8
S'Blue Mountains Tree Frog'
p5495
sg10
(lp5496
I71
aI38
aI187
aI125
asg12
I0
sa(dp5497
g5
I0
sg6
S'Unspecified'
p5498
sg8
S'Blue Mountains Tree Frog'
p5499
sg10
(lp5500
I43
aI55
aI191
aI177
asg12
I0
sasS'corroboreefrog1273'
p5501
(lp5502
(dp5503
g5
I0
sg6
S'Unspecified'
p5504
sg8
S'Corroboree Frog'
p5505
sg10
(lp5506
I96
aI58
aI172
aI151
asg12
I0
sasS'greetreefrog656'
p5507
(lp5508
(dp5509
g5
I0
sg6
S'Unspecified'
p5510
sg8
S'Green Tree Frog'
p5511
sg10
(lp5512
I26
aI1
aI212
aI196
asg12
I1
sasS'greetreefrog1189'
p5513
(lp5514
(dp5515
g5
I0
sg6
S'Unspecified'
p5516
sg8
S'Green Tree Frog'
p5517
sg10
(lp5518
I4
aI2
aI224
aI178
asg12
I1
sasS'GoldenPoisonDartFrog250'
p5519
(lp5520
(dp5521
g5
I0
sg6
S'Unspecified'
p5522
sg8
S'Golden Poison Dart Frog'
p5523
sg10
(lp5524
I21
aI27
aI179
aI202
asg12
I0
sasS'BluePoisonDartFrog590'
p5525
(lp5526
(dp5527
g5
I0
sg6
S'Unspecified'
p5528
sg8
S'Blue Poison Dart Frog'
p5529
sg10
(lp5530
I11
aI13
aI179
aI196
asg12
I0
sasS'BluePoisonDartFrog591'
p5531
(lp5532
(dp5533
g5
I0
sg6
S'Unspecified'
p5534
sg8
S'Blue Poison Dart Frog'
p5535
sg10
(lp5536
I20
aI24
aI182
aI197
asg12
I0
sasS'RedCrownedToadlet518'
p5537
(lp5538
(dp5539
g5
I0
sg6
S'Unspecified'
p5540
sg8
S'Red Crowned Toadlet'
p5541
sg10
(lp5542
I48
aI1
aI116
aI131
asg12
I1
sasS'greetreefrog620'
p5543
(lp5544
(dp5545
g5
I0
sg6
S'Unspecified'
p5546
sg8
S'Green Tree Frog'
p5547
sg10
(lp5548
I39
aI57
aI177
aI190
asg12
I0
sasS'1091'
p5549
(lp5550
(dp5551
g5
I0
sg6
S'Unspecified'
p5552
sg8
S'Blue Mountains Tree Frog'
p5553
sg10
(lp5554
I7
aI53
aI103
aI158
asg12
I0
sa(dp5555
g5
I0
sg6
S'Unspecified'
p5556
sg8
S'Blue Mountains Tree Frog'
p5557
sg10
(lp5558
I13
aI71
aI167
aI221
asg12
I0
sasS'CaneToad1,806'
p5559
(lp5560
(dp5561
g5
I0
sg6
S'Unspecified'
p5562
sg8
S'CaneToad'
p5563
sg10
(lp5564
I10
aI9
aI223
aI199
asg12
I0
sasS'RedCrownedToadlet512'
p5565
(lp5566
(dp5567
g5
I0
sg6
S'Unspecified'
p5568
sg8
S'Red Crowned Toadlet'
p5569
sg10
(lp5570
I23
aI44
aI157
aI176
asg12
I0
sasS'BluePoisonDartFrog612'
p5571
(lp5572
(dp5573
g5
I0
sg6
S'Unspecified'
p5574
sg8
S'Blue Poison Dart Frog'
p5575
sg10
(lp5576
I79
aI41
aI159
aI165
asg12
I0
sasS'corroboreefrog1012'
p5577
(lp5578
(dp5579
g5
I0
sg6
S'Unspecified'
p5580
sg8
S'Corroboree Frog'
p5581
sg10
(lp5582
I22
aI3
aI196
aI191
asg12
I0
sasS'CaneToad1,965'
p5583
(lp5584
(dp5585
g5
I0
sg6
S'Unspecified'
p5586
sg8
S'CaneToad'
p5587
sg10
(lp5588
I76
aI79
aI179
aI176
asg12
I0
sasS'corroboreefrog1014'
p5589
(lp5590
(dp5591
g5
I0
sg6
S'Unspecified'
p5592
sg8
S'Corroboree Frog'
p5593
sg10
(lp5594
I31
aI25
aI220
aI199
asg12
I0
sasS'greetreefrog1706'
p5595
(lp5596
(dp5597
g5
I0
sg6
S'Unspecified'
p5598
sg8
S'Green Tree Frog'
p5599
sg10
(lp5600
I7
aI35
aI212
aI138
asg12
I0
sasS'corroboreefrog909'
p5601
(lp5602
(dp5603
g5
I0
sg6
S'Unspecified'
p5604
sg8
S'Corroboree Frog'
p5605
sg10
(lp5606
I17
aI19
aI199
aI220
asg12
I0
sasS'267'
p5607
(lp5608
(dp5609
g5
I0
sg6
S'Unspecified'
p5610
sg8
S'Blue Mountains Tree Frog'
p5611
sg10
(lp5612
I31
aI16
aI168
aI198
asg12
I0
sasS'greetreefrog1645'
p5613
(lp5614
(dp5615
g5
I0
sg6
S'Unspecified'
p5616
sg8
S'Green Tree Frog'
p5617
sg10
(lp5618
I45
aI33
aI169
aI200
asg12
I0
sasS'GBF913'
p5619
(lp5620
(dp5621
g5
I0
sg6
S'Unspecified'
p5622
sg8
S'Great Barred Frog'
p5623
sg10
(lp5624
I26
aI44
aI184
aI171
asg12
I0
sasS'greetreefrog579'
p5625
(lp5626
(dp5627
g5
I0
sg6
S'Unspecified'
p5628
sg8
S'Green Tree Frog'
p5629
sg10
(lp5630
I25
aI32
aI201
aI152
asg12
I0
sasS'RedCrownedToadlet109'
p5631
(lp5632
(dp5633
g5
I0
sg6
S'Unspecified'
p5634
sg8
S'Red Crowned Toadlet'
p5635
sg10
(lp5636
I11
aI25
aI206
aI200
asg12
I0
sasS'RedCrownedToadlet271'
p5637
(lp5638
(dp5639
g5
I0
sg6
S'Unspecified'
p5640
sg8
S'Red Crowned Toadlet'
p5641
sg10
(lp5642
I21
aI68
aI94
aI143
asg12
I0
sasS'VietnameseMossy55'
p5643
(lp5644
(dp5645
g5
I0
sg6
S'Unspecified'
p5646
sg8
S'Vietnamese Mossy Forg'
p5647
sg10
(lp5648
I39
aI35
aI185
aI178
asg12
I0
sasS'268'
p5649
(lp5650
(dp5651
g5
I0
sg6
S'Unspecified'
p5652
sg8
S'Blue Mountains Tree Frog'
p5653
sg10
(lp5654
I7
aI13
aI124
aI121
asg12
I0
sa(dp5655
g5
I0
sg6
S'Unspecified'
p5656
sg8
S'Blue Mountains Tree Frog'
p5657
sg10
(lp5658
I13
aI42
aI180
aI205
asg12
I0
sasS'GoldenPoisonDartFrog270'
p5659
(lp5660
(dp5661
g5
I0
sg6
S'Unspecified'
p5662
sg8
S'Golden Poison Dart Frog'
p5663
sg10
(lp5664
I97
aI91
aI169
aI167
asg12
I0
sasS'greetreefrog1389'
p5665
(lp5666
(dp5667
g5
I0
sg6
S'Unspecified'
p5668
sg8
S'Green Tree Frog'
p5669
sg10
(lp5670
I46
aI59
aI192
aI185
asg12
I0
sasS'VietnameseMossy94'
p5671
(lp5672
(dp5673
g5
I0
sg6
S'Unspecified'
p5674
sg8
S'Vietnamese Mossy Forg'
p5675
sg10
(lp5676
I30
aI11
aI201
aI169
asg12
I0
sasS'BluePoisonDartFrog114'
p5677
(lp5678
(dp5679
g5
I0
sg6
S'Unspecified'
p5680
sg8
S'Blue Poison Dart Frog'
p5681
sg10
(lp5682
I40
aI46
aI131
aI221
asg12
I0
sasS'GGBF100'
p5683
(lp5684
(dp5685
g5
I0
sg6
S'Unspecified'
p5686
sg8
S'Green And Golden Bell Frog'
p5687
sg10
(lp5688
I42
aI1
aI203
aI198
asg12
I1
sasS'1552'
p5689
(lp5690
(dp5691
g5
I0
sg6
S'Unspecified'
p5692
sg8
S'Blue Mountains Tree Frog'
p5693
sg10
(lp5694
I10
aI56
aI189
aI160
asg12
I0
sasS'RedEyed561'
p5695
(lp5696
(dp5697
g5
I0
sg6
S'Unspecified'
p5698
sg8
S'Red Eyed Tree Frog'
p5699
sg10
(lp5700
I67
aI62
aI161
aI175
asg12
I0
sasS'1557'
p5701
(lp5702
(dp5703
g5
I0
sg6
S'Unspecified'
p5704
sg8
S'Blue Mountains Tree Frog'
p5705
sg10
(lp5706
I5
aI59
aI189
aI174
asg12
I0
sasS'BluePoisonDartFrog299'
p5707
(lp5708
(dp5709
g5
I0
sg6
S'Unspecified'
p5710
sg8
S'Blue Poison Dart Frog'
p5711
sg10
(lp5712
I15
aI2
aI153
aI209
asg12
I0
sasS'GoldenPoisonDartFrog813'
p5713
(lp5714
(dp5715
g5
I0
sg6
S'Unspecified'
p5716
sg8
S'Golden Poison Dart Frog'
p5717
sg10
(lp5718
I56
aI1
aI200
aI214
asg12
I1
sasS'55'
p5719
(lp5720
(dp5721
g5
I0
sg6
S'Unspecified'
p5722
sg8
S'Blue Mountains Tree Frog'
p5723
sg10
(lp5724
I13
aI57
aI189
aI175
asg12
I0
sasS'GBF755'
p5725
(lp5726
(dp5727
g5
I0
sg6
S'Unspecified'
p5728
sg8
S'Great Barred Frog'
p5729
sg10
(lp5730
I28
aI28
aI184
aI181
asg12
I0
sasS'GGBF175'
p5731
(lp5732
(dp5733
g5
I0
sg6
S'Unspecified'
p5734
sg8
S'Green And Golden Bell Frog'
p5735
sg10
(lp5736
I141
aI5
aI208
aI85
asg12
I0
sasS'GoldenPoisonDartFrog810'
p5737
(lp5738
(dp5739
g5
I0
sg6
S'Unspecified'
p5740
sg8
S'Golden Poison Dart Frog'
p5741
sg10
(lp5742
I69
aI27
aI214
aI209
asg12
I0
sasS'GoldenPoisonDartFrog348'
p5743
(lp5744
(dp5745
g5
I0
sg6
S'Unspecified'
p5746
sg8
S'Golden Poison Dart Frog'
p5747
sg10
(lp5748
I62
aI58
aI152
aI125
asg12
I0
sasS'corroboreefrog1549'
p5749
(lp5750
(dp5751
g5
I0
sg6
S'Unspecified'
p5752
sg8
S'Corroboree Frog'
p5753
sg10
(lp5754
I22
aI59
aI181
aI208
asg12
I0
sasS'VietnameseMossy462'
p5755
(lp5756
(dp5757
g5
I0
sg6
S'Unspecified'
p5758
sg8
S'Vietnamese Mossy Forg'
p5759
sg10
(lp5760
I34
aI10
aI198
aI216
asg12
I0
sasS'greetreefrog654'
p5761
(lp5762
(dp5763
g5
I0
sg6
S'Unspecified'
p5764
sg8
S'Green Tree Frog'
p5765
sg10
(lp5766
I11
aI27
aI199
aI224
asg12
I1
sasS'GGBF104'
p5767
(lp5768
(dp5769
g5
I0
sg6
S'Unspecified'
p5770
sg8
S'Green And Golden Bell Frog'
p5771
sg10
(lp5772
I27
aI29
aI211
aI211
asg12
I0
sasS'VietnameseMossy552'
p5773
(lp5774
(dp5775
g5
I0
sg6
S'Unspecified'
p5776
sg8
S'Vietnamese Mossy Forg'
p5777
sg10
(lp5778
I42
aI12
aI224
aI203
asg12
I1
sasS'GoldenPoisonDartFrog345'
p5779
(lp5780
(dp5781
g5
I0
sg6
S'Unspecified'
p5782
sg8
S'Golden Poison Dart Frog'
p5783
sg10
(lp5784
I34
aI25
aI166
aI206
asg12
I0
sasS'1323'
p5785
(lp5786
(dp5787
g5
I0
sg6
S'Unspecified'
p5788
sg8
S'Blue Mountains Tree Frog'
p5789
sg10
(lp5790
I9
aI55
aI189
aI194
asg12
I0
sasS'BluePoisonDartFrog378'
p5791
(lp5792
(dp5793
g5
I0
sg6
S'Unspecified'
p5794
sg8
S'Blue Poison Dart Frog'
p5795
sg10
(lp5796
I6
aI2
aI204
aI201
asg12
I0
sasS'BluePoisonDartFrog270'
p5797
(lp5798
(dp5799
g5
I0
sg6
S'Unspecified'
p5800
sg8
S'Blue Poison Dart Frog'
p5801
sg10
(lp5802
I46
aI33
aI202
aI192
asg12
I0
sasS'procVietnameseMossy887'
p5803
(lp5804
(dp5805
g5
I0
sg6
S'Unspecified'
p5806
sg8
S'Vietnamese Mossy Forg'
p5807
sg10
(lp5808
I1
aI62
aI139
aI176
asg12
I1
sasS'RedEyed752'
p5809
(lp5810
(dp5811
g5
I0
sg6
S'Unspecified'
p5812
sg8
S'Red Eyed Tree Frog'
p5813
sg10
(lp5814
I30
aI79
aI167
aI162
asg12
I0
sasS'GGBF107'
p5815
(lp5816
(dp5817
g5
I0
sg6
S'Unspecified'
p5818
sg8
S'Green And Golden Bell Frog'
p5819
sg10
(lp5820
I2
aI65
aI216
aI180
asg12
I0
sasS'RedCrownedToadlet178'
p5821
(lp5822
(dp5823
g5
I0
sg6
S'Unspecified'
p5824
sg8
S'Red Crowned Toadlet'
p5825
sg10
(lp5826
I38
aI79
aI151
aI167
asg12
I0
sasS'RedCrownedToadlet802'
p5827
(lp5828
(dp5829
g5
I0
sg6
S'Unspecified'
p5830
sg8
S'Red Crowned Toadlet'
p5831
sg10
(lp5832
I20
aI38
aI151
aI174
asg12
I0
sasS'CaneToad1,241'
p5833
(lp5834
(dp5835
g5
I0
sg6
S'Unspecified'
p5836
sg8
S'CaneToad'
p5837
sg10
(lp5838
I1
aI2
aI221
aI214
asg12
I1
sasS'VietnameseMossy256'
p5839
(lp5840
(dp5841
g5
I0
sg6
S'Unspecified'
p5842
sg8
S'Vietnamese Mossy Forg'
p5843
sg10
(lp5844
I80
aI67
aI145
aI95
asg12
I0
sasS'VietnameseMossy855'
p5845
(lp5846
(dp5847
g5
I0
sg6
S'Unspecified'
p5848
sg8
S'Vietnamese Mossy Forg'
p5849
sg10
(lp5850
I22
aI9
aI224
aI223
asg12
I1
sasS'CaneToad1,365'
p5851
(lp5852
(dp5853
g5
I0
sg6
S'Unspecified'
p5854
sg8
S'CaneToad'
p5855
sg10
(lp5856
I50
aI13
aI224
aI191
asg12
I1
sasS'VietnameseMossy24'
p5857
(lp5858
(dp5859
g5
I0
sg6
S'Unspecified'
p5860
sg8
S'Vietnamese Mossy Forg'
p5861
sg10
(lp5862
I60
aI28
aI188
aI209
asg12
I0
sasS'CaneToad1,361'
p5863
(lp5864
(dp5865
g5
I0
sg6
S'Unspecified'
p5866
sg8
S'CaneToad'
p5867
sg10
(lp5868
I51
aI1
aI205
aI256
asg12
I1
sasS'113'
p5869
(lp5870
(dp5871
g5
I0
sg6
S'Unspecified'
p5872
sg8
S'Blue Mountains Tree Frog'
p5873
sg10
(lp5874
I54
aI10
aI190
aI201
asg12
I0
sasS'BluePoisonDartFrog470'
p5875
(lp5876
(dp5877
g5
I0
sg6
S'Unspecified'
p5878
sg8
S'Blue Poison Dart Frog'
p5879
sg10
(lp5880
I34
aI49
aI218
aI206
asg12
I0
sasS'CaneToad1,368'
p5881
(lp5882
(dp5883
g5
I0
sg6
S'Unspecified'
p5884
sg8
S'CaneToad'
p5885
sg10
(lp5886
I2
aI1
aI178
aI223
asg12
I1
sasS'GoldenPoisonDartFrog538'
p5887
(lp5888
(dp5889
g5
I0
sg6
S'Unspecified'
p5890
sg8
S'Golden Poison Dart Frog'
p5891
sg10
(lp5892
I27
aI44
aI147
aI201
asg12
I0
sasS'GBF1000'
p5893
(lp5894
(dp5895
g5
I0
sg6
S'Unspecified'
p5896
sg8
S'Great Barred Frog'
p5897
sg10
(lp5898
I16
aI8
aI201
aI212
asg12
I0
sasS'1858'
p5899
(lp5900
(dp5901
g5
I0
sg6
S'Unspecified'
p5902
sg8
S'Blue Mountains Tree Frog'
p5903
sg10
(lp5904
I60
aI5
aI215
aI163
asg12
I0
sasS'GoldenPoisonDartFrog482'
p5905
(lp5906
(dp5907
g5
I0
sg6
S'Unspecified'
p5908
sg8
S'Golden Poison Dart Frog'
p5909
sg10
(lp5910
I6
aI4
aI79
aI99
asg12
I0
sasS'VietnameseMossy302'
p5911
(lp5912
(dp5913
g5
I0
sg6
S'Unspecified'
p5914
sg8
S'Vietnamese Mossy Forg'
p5915
sg10
(lp5916
I11
aI57
aI213
aI170
asg12
I0
sasS'GBF324'
p5917
(lp5918
(dp5919
g5
I0
sg6
S'Unspecified'
p5920
sg8
S'Great Barred Frog'
p5921
sg10
(lp5922
I12
aI24
aI224
aI222
asg12
I1
sasS'GGBF670'
p5923
(lp5924
(dp5925
g5
I0
sg6
S'Unspecified'
p5926
sg8
S'Green And Golden Bell Frog'
p5927
sg10
(lp5928
I60
aI58
aI128
aI139
asg12
I0
sasS'GBF329'
p5929
(lp5930
(dp5931
g5
I0
sg6
S'Unspecified'
p5932
sg8
S'Great Barred Frog'
p5933
sg10
(lp5934
I13
aI61
aI130
aI207
asg12
I0
sasS'GBF730'
p5935
(lp5936
(dp5937
g5
I0
sg6
S'Unspecified'
p5938
sg8
S'Great Barred Frog'
p5939
sg10
(lp5940
I12
aI59
aI218
aI211
asg12
I0
sasS'GBF733'
p5941
(lp5942
(dp5943
g5
I0
sg6
S'Unspecified'
p5944
sg8
S'Great Barred Frog'
p5945
sg10
(lp5946
I7
aI11
aI223
aI222
asg12
I0
sasS'RedCrownedToadlet6'
p5947
(lp5948
(dp5949
g5
I0
sg6
S'Unspecified'
p5950
sg8
S'Red Crowned Toadlet'
p5951
sg10
(lp5952
I41
aI1
aI194
aI223
asg12
I1
sasS'corroboreefrog1085'
p5953
(lp5954
(dp5955
g5
I0
sg6
S'Unspecified'
p5956
sg8
S'Corroboree Frog'
p5957
sg10
(lp5958
I48
aI18
aI161
aI194
asg12
I0
sasS'corroboreefrog1169'
p5959
(lp5960
(dp5961
g5
I0
sg6
S'Unspecified'
p5962
sg8
S'Corroboree Frog'
p5963
sg10
(lp5964
I49
aI73
aI162
aI160
asg12
I0
sasS'RedCrownedToadlet125'
p5965
(lp5966
(dp5967
g5
I0
sg6
S'Unspecified'
p5968
sg8
S'Red Crowned Toadlet'
p5969
sg10
(lp5970
I5
aI14
aI210
aI206
asg12
I0
sasS'BluePoisonDartFrog918'
p5971
(lp5972
(dp5973
g5
I0
sg6
S'Unspecified'
p5974
sg8
S'Blue Poison Dart Frog'
p5975
sg10
(lp5976
I79
aI44
aI175
aI201
asg12
I0
sasS'corroboreefrog1369'
p5977
(lp5978
(dp5979
g5
I0
sg6
S'Unspecified'
p5980
sg8
S'Corroboree Frog'
p5981
sg10
(lp5982
I25
aI38
aI144
aI208
asg12
I0
sasS'1394'
p5983
(lp5984
(dp5985
g5
I0
sg6
S'Unspecified'
p5986
sg8
S'Blue Mountains Tree Frog'
p5987
sg10
(lp5988
I12
aI63
aI210
aI196
asg12
I0
sasS'procVietnameseMossy965'
p5989
(lp5990
(dp5991
g5
I0
sg6
S'Unspecified'
p5992
sg8
S'Vietnamese Mossy Forg'
p5993
sg10
(lp5994
I3
aI47
aI204
aI221
asg12
I0
sasS'GoldenPoisonDartFrog519'
p5995
(lp5996
(dp5997
g5
I0
sg6
S'Unspecified'
p5998
sg8
S'Golden Poison Dart Frog'
p5999
sg10
(lp6000
I66
aI53
aI165
aI149
asg12
I0
sasS'corroboreefrog1162'
p6001
(lp6002
(dp6003
g5
I0
sg6
S'Unspecified'
p6004
sg8
S'Corroboree Frog'
p6005
sg10
(lp6006
I59
aI18
aI106
aI40
asg12
I0
sa(dp6007
g5
I0
sg6
S'Unspecified'
p6008
sg8
S'Corroboree Frog'
p6009
sg10
(lp6010
I30
aI60
aI90
aI105
asg12
I0
sasS'BluePoisonDartFrog1331'
p6011
(lp6012
(dp6013
g5
I0
sg6
S'Unspecified'
p6014
sg8
S'Blue Poison Dart Frog'
p6015
sg10
(lp6016
I31
aI51
aI166
aI210
asg12
I0
sasS'GGBF696'
p6017
(lp6018
(dp6019
g5
I0
sg6
S'Unspecified'
p6020
sg8
S'Green And Golden Bell Frog'
p6021
sg10
(lp6022
I26
aI23
aI207
aI205
asg12
I0
sasS'greetreefrog1920'
p6023
(lp6024
(dp6025
g5
I0
sg6
S'Unspecified'
p6026
sg8
S'Green Tree Frog'
p6027
sg10
(lp6028
I23
aI18
aI178
aI201
asg12
I0
sasS'RedEyed637'
p6029
(lp6030
(dp6031
g5
I0
sg6
S'Unspecified'
p6032
sg8
S'Red Eyed Tree Frog'
p6033
sg10
(lp6034
I32
aI56
aI192
aI180
asg12
I0
sasS'corroboreefrog1285'
p6035
(lp6036
(dp6037
g5
I0
sg6
S'Unspecified'
p6038
sg8
S'Corroboree Frog'
p6039
sg10
(lp6040
I77
aI114
aI123
aI216
asg12
I0
sasS'CaneToad1,484'
p6041
(lp6042
(dp6043
g5
I0
sg6
S'Unspecified'
p6044
sg8
S'CaneToad'
p6045
sg10
(lp6046
I2
aI2
aI192
aI170
asg12
I0
sasS'greetreefrog351'
p6047
(lp6048
(dp6049
g5
I0
sg6
S'Unspecified'
p6050
sg8
S'Green Tree Frog'
p6051
sg10
(lp6052
I120
aI5
aI216
aI176
asg12
I0
sasS'GoldenPoisonDartFrog801'
p6053
(lp6054
(dp6055
g5
I0
sg6
S'Unspecified'
p6056
sg8
S'Golden Poison Dart Frog'
p6057
sg10
(lp6058
I52
aI55
aI206
aI190
asg12
I0
sasS'CaneToad1,483'
p6059
(lp6060
(dp6061
g5
I0
sg6
S'Unspecified'
p6062
sg8
S'CaneToad'
p6063
sg10
(lp6064
I4
aI1
aI162
aI186
asg12
I1
sasS'GoldenPoisonDartFrog802'
p6065
(lp6066
(dp6067
g5
I0
sg6
S'Unspecified'
p6068
sg8
S'Golden Poison Dart Frog'
p6069
sg10
(lp6070
I17
aI54
aI103
aI217
asg12
I0
sa(dp6071
g5
I0
sg6
S'Unspecified'
p6072
sg8
S'Golden Poison Dart Frog'
p6073
sg10
(lp6074
I118
aI33
aI170
aI170
asg12
I0
sasS'RedCrownedToadlet361'
p6075
(lp6076
(dp6077
g5
I0
sg6
S'Unspecified'
p6078
sg8
S'Red Crowned Toadlet'
p6079
sg10
(lp6080
I87
aI85
aI125
aI120
asg12
I0
sasS'RedCrownedToadlet722'
p6081
(lp6082
(dp6083
g5
I0
sg6
S'Unspecified'
p6084
sg8
S'Red Crowned Toadlet'
p6085
sg10
(lp6086
I79
aI48
aI185
aI188
asg12
I0
sasS'corroboreefrog887'
p6087
(lp6088
(dp6089
g5
I0
sg6
S'Unspecified'
p6090
sg8
S'Corroboree Frog'
p6091
sg10
(lp6092
I56
aI52
aI185
aI182
asg12
I0
sasS'GBF134'
p6093
(lp6094
(dp6095
g5
I0
sg6
S'Unspecified'
p6096
sg8
S'Great Barred Frog'
p6097
sg10
(lp6098
I14
aI47
aI212
aI218
asg12
I0
sasS'VietnameseMossy239'
p6099
(lp6100
(dp6101
g5
I0
sg6
S'Unspecified'
p6102
sg8
S'Vietnamese Mossy Forg'
p6103
sg10
(lp6104
I16
aI71
aI215
aI152
asg12
I0
sasS'GoldenPoisonDartFrog651'
p6105
(lp6106
(dp6107
g5
I0
sg6
S'Unspecified'
p6108
sg8
S'Golden Poison Dart Frog'
p6109
sg10
(lp6110
I2
aI73
aI102
aI216
asg12
I0
sa(dp6111
g5
I0
sg6
S'Unspecified'
p6112
sg8
S'Golden Poison Dart Frog'
p6113
sg10
(lp6114
I129
aI39
aI224
aI179
asg12
I1
sasS'CaneToad1,564'
p6115
(lp6116
(dp6117
g5
I0
sg6
S'Unspecified'
p6118
sg8
S'CaneToad'
p6119
sg10
(lp6120
I3
aI27
aI223
aI193
asg12
I0
sasS'greetreefrog266'
p6121
(lp6122
(dp6123
g5
I0
sg6
S'Unspecified'
p6124
sg8
S'Green Tree Frog'
p6125
sg10
(lp6126
I12
aI19
aI209
aI223
asg12
I0
sasS'corroboreefrog1490'
p6127
(lp6128
(dp6129
g5
I0
sg6
S'Unspecified'
p6130
sg8
S'Corroboree Frog'
p6131
sg10
(lp6132
I18
aI29
aI224
aI196
asg12
I1
sasS'VietnameseMossy237'
p6133
(lp6134
(dp6135
g5
I0
sg6
S'Unspecified'
p6136
sg8
S'Vietnamese Mossy Forg'
p6137
sg10
(lp6138
I62
aI16
aI224
aI197
asg12
I1
sasS'GGBF594'
p6139
(lp6140
(dp6141
g5
I0
sg6
S'Unspecified'
p6142
sg8
S'Green And Golden Bell Frog'
p6143
sg10
(lp6144
I39
aI52
aI136
aI145
asg12
I0
sasS'GBF878'
p6145
(lp6146
(dp6147
g5
I0
sg6
S'Unspecified'
p6148
sg8
S'Great Barred Frog'
p6149
sg10
(lp6150
I42
aI38
aI208
aI186
asg12
I0
sasS'849'
p6151
(lp6152
(dp6153
g5
I0
sg6
S'Unspecified'
p6154
sg8
S'Blue Mountains Tree Frog'
p6155
sg10
(lp6156
I68
aI8
aI205
aI191
asg12
I0
sasS'VietnameseMossy232'
p6157
(lp6158
(dp6159
g5
I0
sg6
S'Unspecified'
p6160
sg8
S'Vietnamese Mossy Forg'
p6161
sg10
(lp6162
I52
aI37
aI188
aI220
asg12
I0
sasS'GGBF351'
p6163
(lp6164
(dp6165
g5
I0
sg6
S'Unspecified'
p6166
sg8
S'Green And Golden Bell Frog'
p6167
sg10
(lp6168
I25
aI111
aI125
aI177
asg12
I0
sasS'GoldenPoisonDartFrog256'
p6169
(lp6170
(dp6171
g5
I0
sg6
S'Unspecified'
p6172
sg8
S'Golden Poison Dart Frog'
p6173
sg10
(lp6174
I47
aI37
aI181
aI171
asg12
I0
sasS'GBF785'
p6175
(lp6176
(dp6177
g5
I0
sg6
S'Unspecified'
p6178
sg8
S'Great Barred Frog'
p6179
sg10
(lp6180
I24
aI9
aI221
aI220
asg12
I0
sasS'GoldenPoisonDartFrog1143'
p6181
(lp6182
(dp6183
g5
I0
sg6
S'Unspecified'
p6184
sg8
S'Golden Poison Dart Frog'
p6185
sg10
(lp6186
I61
aI67
aI144
aI168
asg12
I0
sasS'GGBF210'
p6187
(lp6188
(dp6189
g5
I0
sg6
S'Unspecified'
p6190
sg8
S'Green And Golden Bell Frog'
p6191
sg10
(lp6192
I27
aI54
aI205
aI149
asg12
I0
sasS'GBF420'
p6193
(lp6194
(dp6195
g5
I0
sg6
S'Unspecified'
p6196
sg8
S'Great Barred Frog'
p6197
sg10
(lp6198
I50
aI54
aI182
aI211
asg12
I0
sasS'BluePoisonDartFrog974'
p6199
(lp6200
(dp6201
g5
I0
sg6
S'Unspecified'
p6202
sg8
S'Blue Poison Dart Frog'
p6203
sg10
(lp6204
I15
aI3
aI160
aI185
asg12
I0
sasS'greetreefrog1028'
p6205
(lp6206
(dp6207
g5
I0
sg6
S'Unspecified'
p6208
sg8
S'Green Tree Frog'
p6209
sg10
(lp6210
I118
aI60
aI180
aI139
asg12
I0
sasS'GGBF824'
p6211
(lp6212
(dp6213
g5
I0
sg6
S'Unspecified'
p6214
sg8
S'Green And Golden Bell Frog'
p6215
sg10
(lp6216
I98
aI48
aI176
aI169
asg12
I0
sasS'VietnameseMossy10'
p6217
(lp6218
(dp6219
g5
I0
sg6
S'Unspecified'
p6220
sg8
S'Vietnamese Mossy Forg'
p6221
sg10
(lp6222
I79
aI4
aI219
aI203
asg12
I0
sasS'GGBF764'
p6223
(lp6224
(dp6225
g5
I0
sg6
S'Unspecified'
p6226
sg8
S'Green And Golden Bell Frog'
p6227
sg10
(lp6228
I22
aI51
aI210
aI186
asg12
I0
sasS'GoldenPoisonDartFrog214'
p6229
(lp6230
(dp6231
g5
I0
sg6
S'Unspecified'
p6232
sg8
S'Golden Poison Dart Frog'
p6233
sg10
(lp6234
I59
aI21
aI201
aI195
asg12
I0
sasS'corroboreefrog1238'
p6235
(lp6236
(dp6237
g5
I0
sg6
S'Unspecified'
p6238
sg8
S'Corroboree Frog'
p6239
sg10
(lp6240
I58
aI125
aI224
aI219
asg12
I1
sasS'GGBF580'
p6241
(lp6242
(dp6243
g5
I0
sg6
S'Unspecified'
p6244
sg8
S'Green And Golden Bell Frog'
p6245
sg10
(lp6246
I39
aI58
aI178
aI170
asg12
I0
sasS'greetreefrog901'
p6247
(lp6248
(dp6249
g5
I0
sg6
S'Unspecified'
p6250
sg8
S'Green Tree Frog'
p6251
sg10
(lp6252
I38
aI49
aI163
aI173
asg12
I0
sasS'greetreefrog907'
p6253
(lp6254
(dp6255
g5
I0
sg6
S'Unspecified'
p6256
sg8
S'Green Tree Frog'
p6257
sg10
(lp6258
I51
aI16
aI194
aI186
asg12
I0
sasS'RedCrownedToadlet99'
p6259
(lp6260
(dp6261
g5
I0
sg6
S'Unspecified'
p6262
sg8
S'Red Crowned Toadlet'
p6263
sg10
(lp6264
I1
aI52
aI110
aI167
asg12
I1
sasS'RedCrownedToadlet583'
p6265
(lp6266
(dp6267
g5
I0
sg6
S'Unspecified'
p6268
sg8
S'Red Crowned Toadlet'
p6269
sg10
(lp6270
I23
aI9
aI203
aI192
asg12
I0
sasS'GGBF464'
p6271
(lp6272
(dp6273
g5
I0
sg6
S'Unspecified'
p6274
sg8
S'Green And Golden Bell Frog'
p6275
sg10
(lp6276
I15
aI1
aI224
aI207
asg12
I1
sasS'corroboreefrog407'
p6277
(lp6278
(dp6279
g5
I0
sg6
S'Unspecified'
p6280
sg8
S'Corroboree Frog'
p6281
sg10
(lp6282
I58
aI59
aI140
aI173
asg12
I0
sasS'corroboreefrog156'
p6283
(lp6284
(dp6285
g5
I0
sg6
S'Unspecified'
p6286
sg8
S'Corroboree Frog'
p6287
sg10
(lp6288
I61
aI54
aI163
aI125
asg12
I0
sa(dp6289
g5
I0
sg6
S'Unspecified'
p6290
sg8
S'Corroboree Frog'
p6291
sg10
(lp6292
I76
aI125
aI170
aI175
asg12
I0
sasS'greetreefrog868'
p6293
(lp6294
(dp6295
g5
I0
sg6
S'Unspecified'
p6296
sg8
S'Green Tree Frog'
p6297
sg10
(lp6298
I25
aI10
aI200
aI202
asg12
I0
sasS'VietnameseMossy306'
p6299
(lp6300
(dp6301
g5
I0
sg6
S'Unspecified'
p6302
sg8
S'Vietnamese Mossy Forg'
p6303
sg10
(lp6304
I24
aI61
aI199
aI188
asg12
I0
sasS'GGBF27'
p6305
(lp6306
(dp6307
g5
I0
sg6
S'Unspecified'
p6308
sg8
S'Green And Golden Bell Frog'
p6309
sg10
(lp6310
I10
aI9
aI224
aI210
asg12
I1
sasS'GBF30'
p6311
(lp6312
(dp6313
g5
I0
sg6
S'Unspecified'
p6314
sg8
S'Great Barred Frog'
p6315
sg10
(lp6316
I3
aI13
aI211
aI187
asg12
I0
sasS'RedCrownedToadlet599'
p6317
(lp6318
(dp6319
g5
I0
sg6
S'Unspecified'
p6320
sg8
S'Red Crowned Toadlet'
p6321
sg10
(lp6322
I79
aI4
aI176
aI103
asg12
I0
sasS'corroboreefrog122'
p6323
(lp6324
(dp6325
g5
I0
sg6
S'Unspecified'
p6326
sg8
S'Corroboree Frog'
p6327
sg10
(lp6328
I8
aI28
aI161
aI163
asg12
I0
sasS'RedCrownedToadlet206'
p6329
(lp6330
(dp6331
g5
I0
sg6
S'Unspecified'
p6332
sg8
S'Red Crowned Toadlet'
p6333
sg10
(lp6334
I34
aI70
aI158
aI177
asg12
I0
sasS'RedCrownedToadlet937'
p6335
(lp6336
(dp6337
g5
I0
sg6
S'Unspecified'
p6338
sg8
S'Red Crowned Toadlet'
p6339
sg10
(lp6340
I7
aI9
aI205
aI213
asg12
I0
sasS'CaneToad1,413'
p6341
(lp6342
(dp6343
g5
I0
sg6
S'Unspecified'
p6344
sg8
S'CaneToad'
p6345
sg10
(lp6346
I3
aI54
aI224
aI213
asg12
I1
sasS'RedCrownedToadlet29'
p6347
(lp6348
(dp6349
g5
I0
sg6
S'Unspecified'
p6350
sg8
S'Red Crowned Toadlet'
p6351
sg10
(lp6352
I74
aI41
aI178
aI168
asg12
I0
sasS'GBF554'
p6353
(lp6354
(dp6355
g5
I0
sg6
S'Unspecified'
p6356
sg8
S'Great Barred Frog'
p6357
sg10
(lp6358
I46
aI42
aI214
aI207
asg12
I0
sasS'GGBF850'
p6359
(lp6360
(dp6361
g5
I0
sg6
S'Unspecified'
p6362
sg8
S'Green And Golden Bell Frog'
p6363
sg10
(lp6364
I52
aI3
aI196
aI172
asg12
I0
sasS'GGBF500'
p6365
(lp6366
(dp6367
g5
I0
sg6
S'Unspecified'
p6368
sg8
S'Green And Golden Bell Frog'
p6369
sg10
(lp6370
I17
aI1
aI167
aI194
asg12
I1
sasS'BluePoisonDartFrog17'
p6371
(lp6372
(dp6373
g5
I0
sg6
S'Unspecified'
p6374
sg8
S'Blue Poison Dart Frog'
p6375
sg10
(lp6376
I21
aI24
aI214
aI218
asg12
I0
sasS'GBF1015'
p6377
(lp6378
(dp6379
g5
I0
sg6
S'Unspecified'
p6380
sg8
S'Great Barred Frog'
p6381
sg10
(lp6382
I49
aI39
aI164
aI186
asg12
I0
sasS'GBF251'
p6383
(lp6384
(dp6385
g5
I0
sg6
S'Unspecified'
p6386
sg8
S'Great Barred Frog'
p6387
sg10
(lp6388
I60
aI14
aI220
aI213
asg12
I0
sasS'VietnameseMossy671'
p6389
(lp6390
(dp6391
g5
I0
sg6
S'Unspecified'
p6392
sg8
S'Vietnamese Mossy Forg'
p6393
sg10
(lp6394
I8
aI6
aI224
aI206
asg12
I1
sasS'CaneToad1,922'
p6395
(lp6396
(dp6397
g5
I0
sg6
S'Unspecified'
p6398
sg8
S'CaneToad'
p6399
sg10
(lp6400
I33
aI33
aI189
aI212
asg12
I0
sasS'GoldenPoisonDartFrog472'
p6401
(lp6402
(dp6403
g5
I0
sg6
S'Unspecified'
p6404
sg8
S'Golden Poison Dart Frog'
p6405
sg10
(lp6406
I74
aI83
aI127
aI147
asg12
I0
sasS'750'
p6407
(lp6408
(dp6409
g5
I0
sg6
S'Unspecified'
p6410
sg8
S'Blue Mountains Tree Frog'
p6411
sg10
(lp6412
I52
aI17
aI177
aI196
asg12
I0
sasS'CaneToad1,926'
p6413
(lp6414
(dp6415
g5
I0
sg6
S'Unspecified'
p6416
sg8
S'CaneToad'
p6417
sg10
(lp6418
I31
aI34
aI189
aI182
asg12
I0
sasS'GoldenPoisonDartFrog478'
p6419
(lp6420
(dp6421
g5
I0
sg6
S'Unspecified'
p6422
sg8
S'Golden Poison Dart Frog'
p6423
sg10
(lp6424
I7
aI19
aI204
aI203
asg12
I0
sasS'CaneToad1,145'
p6425
(lp6426
(dp6427
g5
I0
sg6
S'Unspecified'
p6428
sg8
S'CaneToad'
p6429
sg10
(lp6430
I35
aI115
aI130
aI192
asg12
I0
sasS'greetreefrog1357'
p6431
(lp6432
(dp6433
g5
I0
sg6
S'Unspecified'
p6434
sg8
S'Green Tree Frog'
p6435
sg10
(lp6436
I25
aI81
aI161
aI132
asg12
I0
sasS'RedEyed772'
p6437
(lp6438
(dp6439
g5
I0
sg6
S'Unspecified'
p6440
sg8
S'Red Eyed Tree Frog'
p6441
sg10
(lp6442
I25
aI40
aI200
aI143
asg12
I0
sasS'VietnameseMossy845'
p6443
(lp6444
(dp6445
g5
I0
sg6
S'Unspecified'
p6446
sg8
S'Vietnamese Mossy Forg'
p6447
sg10
(lp6448
I19
aI33
aI201
aI179
asg12
I0
sasS'1594'
p6449
(lp6450
(dp6451
g5
I0
sg6
S'Unspecified'
p6452
sg8
S'Blue Mountains Tree Frog'
p6453
sg10
(lp6454
I62
aI45
aI156
aI205
asg12
I0
sasS'CaneToad2,127'
p6455
(lp6456
(dp6457
g5
I0
sg6
S'Unspecified'
p6458
sg8
S'CaneToad'
p6459
sg10
(lp6460
I76
aI39
aI193
aI168
asg12
I0
sasS'greetreefrog1515'
p6461
(lp6462
(dp6463
g5
I0
sg6
S'Unspecified'
p6464
sg8
S'Green Tree Frog'
p6465
sg10
(lp6466
I1
aI75
aI210
aI177
asg12
I1
sasS'RedCrownedToadlet228'
p6467
(lp6468
(dp6469
g5
I0
sg6
S'Unspecified'
p6470
sg8
S'Red Crowned Toadlet'
p6471
sg10
(lp6472
I110
aI1
aI173
aI128
asg12
I1
sasS'CaneToad2,120'
p6473
(lp6474
(dp6475
g5
I0
sg6
S'Unspecified'
p6476
sg8
S'CaneToad'
p6477
sg10
(lp6478
I67
aI3
aI187
aI187
asg12
I0
sasS'BluePoisonDartFrog553'
p6479
(lp6480
(dp6481
g5
I0
sg6
S'Unspecified'
p6482
sg8
S'Blue Poison Dart Frog'
p6483
sg10
(lp6484
I14
aI48
aI78
aI98
asg12
I0
sa(dp6485
g5
I0
sg6
S'Unspecified'
p6486
sg8
S'Blue Poison Dart Frog'
p6487
sg10
(lp6488
I6
aI121
aI83
aI177
asg12
I0
sa(dp6489
g5
I0
sg6
S'Unspecified'
p6490
sg8
S'Blue Poison Dart Frog'
p6491
sg10
(lp6492
I83
aI70
aI138
aI145
asg12
I0
sa(dp6493
g5
I0
sg6
S'Unspecified'
p6494
sg8
S'Blue Poison Dart Frog'
p6495
sg10
(lp6496
I142
aI48
aI217
aI103
asg12
I0
sa(dp6497
g5
I0
sg6
S'Unspecified'
p6498
sg8
S'Blue Poison Dart Frog'
p6499
sg10
(lp6500
I141
aI107
aI210
aI174
asg12
I0
sasS'GBF951'
p6501
(lp6502
(dp6503
g5
I0
sg6
S'Unspecified'
p6504
sg8
S'Great Barred Frog'
p6505
sg10
(lp6506
I11
aI13
aI209
aI195
asg12
I0
sasS'226'
p6507
(lp6508
(dp6509
g5
I0
sg6
S'Unspecified'
p6510
sg8
S'Blue Mountains Tree Frog'
p6511
sg10
(lp6512
I41
aI15
aI183
aI217
asg12
I0
sasS'225'
p6513
(lp6514
(dp6515
g5
I0
sg6
S'Unspecified'
p6516
sg8
S'Blue Mountains Tree Frog'
p6517
sg10
(lp6518
I46
aI57
aI175
aI170
asg12
I0
sasS'RedEyed603'
p6519
(lp6520
(dp6521
g5
I0
sg6
S'Unspecified'
p6522
sg8
S'Red Eyed Tree Frog'
p6523
sg10
(lp6524
I51
aI41
aI155
aI199
asg12
I0
sasS'BluePoisonDartFrog653'
p6525
(lp6526
(dp6527
g5
I0
sg6
S'Unspecified'
p6528
sg8
S'Blue Poison Dart Frog'
p6529
sg10
(lp6530
I21
aI24
aI183
aI185
asg12
I0
sasS'BluePoisonDartFrog158'
p6531
(lp6532
(dp6533
g5
I0
sg6
S'Unspecified'
p6534
sg8
S'Blue Poison Dart Frog'
p6535
sg10
(lp6536
I37
aI79
aI149
aI188
asg12
I0
sasS'1023'
p6537
(lp6538
(dp6539
g5
I0
sg6
S'Unspecified'
p6540
sg8
S'Blue Mountains Tree Frog'
p6541
sg10
(lp6542
I25
aI7
aI149
aI218
asg12
I0
sasS'greetreefrog1314'
p6543
(lp6544
(dp6545
g5
I0
sg6
S'Unspecified'
p6546
sg8
S'Green Tree Frog'
p6547
sg10
(lp6548
I27
aI32
aI185
aI205
asg12
I0
sasS'1186'
p6549
(lp6550
(dp6551
g5
I0
sg6
S'Unspecified'
p6552
sg8
S'Blue Mountains Tree Frog'
p6553
sg10
(lp6554
I8
aI12
aI213
aI212
asg12
I0
sasS'greetreefrog1215'
p6555
(lp6556
(dp6557
g5
I0
sg6
S'Unspecified'
p6558
sg8
S'Green Tree Frog'
p6559
sg10
(lp6560
I62
aI1
aI194
aI194
asg12
I1
sasS'1181'
p6561
(lp6562
(dp6563
g5
I0
sg6
S'Unspecified'
p6564
sg8
S'Blue Mountains Tree Frog'
p6565
sg10
(lp6566
I13
aI1
aI224
aI222
asg12
I1
sasS'corroboreefrog1304'
p6567
(lp6568
(dp6569
g5
I0
sg6
S'Unspecified'
p6570
sg8
S'Corroboree Frog'
p6571
sg10
(lp6572
I18
aI8
aI114
aI156
asg12
I0
sasS'greetreefrog962'
p6573
(lp6574
(dp6575
g5
I0
sg6
S'Unspecified'
p6576
sg8
S'Green Tree Frog'
p6577
sg10
(lp6578
I24
aI30
aI147
aI168
asg12
I0
sasS'1749'
p6579
(lp6580
(dp6581
g5
I0
sg6
S'Unspecified'
p6582
sg8
S'Blue Mountains Tree Frog'
p6583
sg10
(lp6584
I24
aI45
aI180
aI159
asg12
I0
sasS'VietnameseMossy679'
p6585
(lp6586
(dp6587
g5
I0
sg6
S'Unspecified'
p6588
sg8
S'Vietnamese Mossy Forg'
p6589
sg10
(lp6590
I66
aI30
aI191
aI143
asg12
I0
sasS'1744'
p6591
(lp6592
(dp6593
g5
I0
sg6
S'Unspecified'
p6594
sg8
S'Blue Mountains Tree Frog'
p6595
sg10
(lp6596
I53
aI67
aI198
aI180
asg12
I0
sasS'GoldenPoisonDartFrog570'
p6597
(lp6598
(dp6599
g5
I0
sg6
S'Unspecified'
p6600
sg8
S'Golden Poison Dart Frog'
p6601
sg10
(lp6602
I63
aI42
aI184
aI163
asg12
I0
sasS'greetreefrog698'
p6603
(lp6604
(dp6605
g5
I0
sg6
S'Unspecified'
p6606
sg8
S'Green Tree Frog'
p6607
sg10
(lp6608
I18
aI28
aI205
aI192
asg12
I0
sasS'greetreefrog689'
p6609
(lp6610
(dp6611
g5
I0
sg6
S'Unspecified'
p6612
sg8
S'Green Tree Frog'
p6613
sg10
(lp6614
I17
aI9
aI223
aI214
asg12
I0
sasS'RedCrownedToadlet864'
p6615
(lp6616
(dp6617
g5
I0
sg6
S'Unspecified'
p6618
sg8
S'Red Crowned Toadlet'
p6619
sg10
(lp6620
I63
aI122
aI121
aI187
asg12
I0
sasS'greetreefrog964'
p6621
(lp6622
(dp6623
g5
I0
sg6
S'Unspecified'
p6624
sg8
S'Green Tree Frog'
p6625
sg10
(lp6626
I56
aI75
aI191
aI201
asg12
I0
sasS'CaneToad1,282'
p6627
(lp6628
(dp6629
g5
I0
sg6
S'Unspecified'
p6630
sg8
S'CaneToad'
p6631
sg10
(lp6632
I1
aI31
aI256
aI252
asg12
I1
sasS'corroboreefrog1041'
p6633
(lp6634
(dp6635
g5
I0
sg6
S'Unspecified'
p6636
sg8
S'Corroboree Frog'
p6637
sg10
(lp6638
I41
aI36
aI189
aI179
asg12
I0
sasS'BluePoisonDartFrog1278'
p6639
(lp6640
(dp6641
g5
I0
sg6
S'Unspecified'
p6642
sg8
S'Blue Poison Dart Frog'
p6643
sg10
(lp6644
I38
aI63
aI165
aI193
asg12
I0
sasS'greetreefrog1967'
p6645
(lp6646
(dp6647
g5
I0
sg6
S'Unspecified'
p6648
sg8
S'Green Tree Frog'
p6649
sg10
(lp6650
I30
aI16
aI217
aI182
asg12
I0
sasS'600'
p6651
(lp6652
(dp6653
g5
I0
sg6
S'Unspecified'
p6654
sg8
S'Blue Mountains Tree Frog'
p6655
sg10
(lp6656
I13
aI113
aI107
aI214
asg12
I0
sasS'BluePoisonDartFrog722'
p6657
(lp6658
(dp6659
g5
I0
sg6
S'Unspecified'
p6660
sg8
S'Blue Poison Dart Frog'
p6661
sg10
(lp6662
I19
aI39
aI132
aI208
asg12
I0
sasS'VietnameseMossy349'
p6663
(lp6664
(dp6665
g5
I0
sg6
S'Unspecified'
p6666
sg8
S'Vietnamese Mossy Forg'
p6667
sg10
(lp6668
I36
aI11
aI196
aI215
asg12
I0
sasS'BluePoisonDartFrog724'
p6669
(lp6670
(dp6671
g5
I0
sg6
S'Unspecified'
p6672
sg8
S'Blue Poison Dart Frog'
p6673
sg10
(lp6674
I82
aI33
aI191
aI184
asg12
I0
sasS'CaneToad1,733'
p6675
(lp6676
(dp6677
g5
I0
sg6
S'Unspecified'
p6678
sg8
S'CaneToad'
p6679
sg10
(lp6680
I26
aI11
aI208
aI211
asg12
I0
sasS'BluePoisonDartFrog885'
p6681
(lp6682
(dp6683
g5
I0
sg6
S'Unspecified'
p6684
sg8
S'Blue Poison Dart Frog'
p6685
sg10
(lp6686
I59
aI71
aI220
aI180
asg12
I0
sasS'1894'
p6687
(lp6688
(dp6689
g5
I0
sg6
S'Unspecified'
p6690
sg8
S'Blue Mountains Tree Frog'
p6691
sg10
(lp6692
I50
aI38
aI224
aI204
asg12
I1
sasS'1892'
p6693
(lp6694
(dp6695
g5
I0
sg6
S'Unspecified'
p6696
sg8
S'Blue Mountains Tree Frog'
p6697
sg10
(lp6698
I25
aI11
aI170
aI156
asg12
I0
sasS'corroboreefrog1241'
p6699
(lp6700
(dp6701
g5
I0
sg6
S'Unspecified'
p6702
sg8
S'Corroboree Frog'
p6703
sg10
(lp6704
I91
aI87
aI146
aI140
asg12
I0
sasS'2135'
p6705
(lp6706
(dp6707
g5
I0
sg6
S'Unspecified'
p6708
sg8
S'Blue Mountains Tree Frog'
p6709
sg10
(lp6710
I31
aI29
aI222
aI223
asg12
I0
sasS'GoldenPoisonDartFrog861'
p6711
(lp6712
(dp6713
g5
I0
sg6
S'Unspecified'
p6714
sg8
S'Golden Poison Dart Frog'
p6715
sg10
(lp6716
I58
aI59
aI170
aI159
asg12
I0
sasS'GGBF436'
p6717
(lp6718
(dp6719
g5
I0
sg6
S'Unspecified'
p6720
sg8
S'Green And Golden Bell Frog'
p6721
sg10
(lp6722
I52
aI45
aI199
aI196
asg12
I0
sasS'955'
p6723
(lp6724
(dp6725
g5
I0
sg6
S'Unspecified'
p6726
sg8
S'Blue Mountains Tree Frog'
p6727
sg10
(lp6728
I99
aI54
aI152
aI157
asg12
I0
sa(dp6729
g5
I0
sg6
S'Unspecified'
p6730
sg8
S'Blue Mountains Tree Frog'
p6731
sg10
(lp6732
I43
aI41
aI106
aI190
asg12
I0
sasS'RedEyed512'
p6733
(lp6734
(dp6735
g5
I0
sg6
S'Unspecified'
p6736
sg8
S'Red Eyed Tree Frog'
p6737
sg10
(lp6738
I51
aI33
aI187
aI224
asg12
I1
sasS'956'
p6739
(lp6740
(dp6741
g5
I0
sg6
S'Unspecified'
p6742
sg8
S'Blue Mountains Tree Frog'
p6743
sg10
(lp6744
I63
aI89
aI159
aI159
asg12
I0
sa(dp6745
g5
I0
sg6
S'Unspecified'
p6746
sg8
S'Blue Mountains Tree Frog'
p6747
sg10
(lp6748
I44
aI33
aI189
aI106
asg12
I0
sasS'VietnameseMossy71'
p6749
(lp6750
(dp6751
g5
I0
sg6
S'Unspecified'
p6752
sg8
S'Vietnamese Mossy Forg'
p6753
sg10
(lp6754
I44
aI50
aI184
aI175
asg12
I0
sasS'1446'
p6755
(lp6756
(dp6757
g5
I0
sg6
S'Unspecified'
p6758
sg8
S'Blue Mountains Tree Frog'
p6759
sg10
(lp6760
I33
aI11
aI211
aI182
asg12
I0
sasS'VietnameseMossy29'
p6761
(lp6762
(dp6763
g5
I0
sg6
S'Unspecified'
p6764
sg8
S'Vietnamese Mossy Forg'
p6765
sg10
(lp6766
I33
aI60
aI197
aI203
asg12
I0
sasS'GoldenPoisonDartFrog376'
p6767
(lp6768
(dp6769
g5
I0
sg6
S'Unspecified'
p6770
sg8
S'Golden Poison Dart Frog'
p6771
sg10
(lp6772
I23
aI2
aI163
aI193
asg12
I0
sasS'GoldenPoisonDartFrog272'
p6773
(lp6774
(dp6775
g5
I0
sg6
S'Unspecified'
p6776
sg8
S'Golden Poison Dart Frog'
p6777
sg10
(lp6778
I61
aI31
aI204
aI156
asg12
I0
sasS'BluePoisonDartFrog1077'
p6779
(lp6780
(dp6781
g5
I0
sg6
S'Unspecified'
p6782
sg8
S'Blue Poison Dart Frog'
p6783
sg10
(lp6784
I66
aI90
aI118
aI162
asg12
I0
sasS'1291'
p6785
(lp6786
(dp6787
g5
I0
sg6
S'Unspecified'
p6788
sg8
S'Blue Mountains Tree Frog'
p6789
sg10
(lp6790
I17
aI12
aI209
aI197
asg12
I0
sasS'GoldenPoisonDartFrog276'
p6791
(lp6792
(dp6793
g5
I0
sg6
S'Unspecified'
p6794
sg8
S'Golden Poison Dart Frog'
p6795
sg10
(lp6796
I4
aI3
aI215
aI196
asg12
I0
sasS'BluePoisonDartFrog714'
p6797
(lp6798
(dp6799
g5
I0
sg6
S'Unspecified'
p6800
sg8
S'Blue Poison Dart Frog'
p6801
sg10
(lp6802
I38
aI76
aI160
aI196
asg12
I0
sasS'1566'
p6803
(lp6804
(dp6805
g5
I0
sg6
S'Unspecified'
p6806
sg8
S'Blue Mountains Tree Frog'
p6807
sg10
(lp6808
I31
aI50
aI184
aI164
asg12
I0
sasS'1448'
p6809
(lp6810
(dp6811
g5
I0
sg6
S'Unspecified'
p6812
sg8
S'Blue Mountains Tree Frog'
p6813
sg10
(lp6814
I3
aI12
aI188
aI189
asg12
I0
sasS'greetreefrog1243'
p6815
(lp6816
(dp6817
g5
I0
sg6
S'Unspecified'
p6818
sg8
S'Green Tree Frog'
p6819
sg10
(lp6820
I3
aI2
aI198
aI212
asg12
I0
sasS'RedEyed104'
p6821
(lp6822
(dp6823
g5
I0
sg6
S'Unspecified'
p6824
sg8
S'Red Eyed Tree Frog'
p6825
sg10
(lp6826
I13
aI80
aI186
aI172
asg12
I0
sasS'2004'
p6827
(lp6828
(dp6829
g5
I0
sg6
S'Unspecified'
p6830
sg8
S'Blue Mountains Tree Frog'
p6831
sg10
(lp6832
I18
aI17
aI203
aI198
asg12
I0
sasS'BluePoisonDartFrog830'
p6833
(lp6834
(dp6835
g5
I0
sg6
S'Unspecified'
p6836
sg8
S'Blue Poison Dart Frog'
p6837
sg10
(lp6838
I18
aI140
aI204
aI224
asg12
I1
sasS'RedCrownedToadlet554'
p6839
(lp6840
(dp6841
g5
I0
sg6
S'Unspecified'
p6842
sg8
S'Red Crowned Toadlet'
p6843
sg10
(lp6844
I49
aI11
aI170
aI171
asg12
I0
sasS'RedCrownedToadlet141'
p6845
(lp6846
(dp6847
g5
I0
sg6
S'Unspecified'
p6848
sg8
S'Red Crowned Toadlet'
p6849
sg10
(lp6850
I119
aI7
aI216
aI138
asg12
I0
sasS'BluePoisonDartFrog426'
p6851
(lp6852
(dp6853
g5
I0
sg6
S'Unspecified'
p6854
sg8
S'Blue Poison Dart Frog'
p6855
sg10
(lp6856
I13
aI32
aI179
aI163
asg12
I0
sasS'BluePoisonDartFrog1436'
p6857
(lp6858
(dp6859
g5
I0
sg6
S'Unspecified'
p6860
sg8
S'Blue Poison Dart Frog'
p6861
sg10
(lp6862
I35
aI98
aI142
aI181
asg12
I0
sasS'GGBF839'
p6863
(lp6864
(dp6865
g5
I0
sg6
S'Unspecified'
p6866
sg8
S'Green And Golden Bell Frog'
p6867
sg10
(lp6868
I32
aI21
aI187
aI185
asg12
I0
sasS'GBF38'
p6869
(lp6870
(dp6871
g5
I0
sg6
S'Unspecified'
p6872
sg8
S'Great Barred Frog'
p6873
sg10
(lp6874
I13
aI16
aI196
aI186
asg12
I0
sasS'CaneToad1,213'
p6875
(lp6876
(dp6877
g5
I0
sg6
S'Unspecified'
p6878
sg8
S'CaneToad'
p6879
sg10
(lp6880
I12
aI1
aI192
aI199
asg12
I1
sasS'BluePoisonDartFrog711'
p6881
(lp6882
(dp6883
g5
I0
sg6
S'Unspecified'
p6884
sg8
S'Blue Poison Dart Frog'
p6885
sg10
(lp6886
I12
aI40
aI166
aI200
asg12
I0
sasS'greetreefrog1363'
p6887
(lp6888
(dp6889
g5
I0
sg6
S'Unspecified'
p6890
sg8
S'Green Tree Frog'
p6891
sg10
(lp6892
I100
aI84
aI144
aI220
asg12
I0
sasS'VietnameseMossy63'
p6893
(lp6894
(dp6895
g5
I0
sg6
S'Unspecified'
p6896
sg8
S'Vietnamese Mossy Forg'
p6897
sg10
(lp6898
I31
aI38
aI207
aI198
asg12
I0
sasS'greetreefrog1514'
p6899
(lp6900
(dp6901
g5
I0
sg6
S'Unspecified'
p6902
sg8
S'Green Tree Frog'
p6903
sg10
(lp6904
I76
aI15
aI181
aI224
asg12
I1
sasS'GGBF640'
p6905
(lp6906
(dp6907
g5
I0
sg6
S'Unspecified'
p6908
sg8
S'Green And Golden Bell Frog'
p6909
sg10
(lp6910
I10
aI5
aI224
aI223
asg12
I1
sasS'1803'
p6911
(lp6912
(dp6913
g5
I0
sg6
S'Unspecified'
p6914
sg8
S'Blue Mountains Tree Frog'
p6915
sg10
(lp6916
I52
aI7
aI208
aI198
asg12
I0
sasS'GGBF646'
p6917
(lp6918
(dp6919
g5
I0
sg6
S'Unspecified'
p6920
sg8
S'Green And Golden Bell Frog'
p6921
sg10
(lp6922
I32
aI37
aI196
aI183
asg12
I0
sasS'greetreefrog224'
p6923
(lp6924
(dp6925
g5
I0
sg6
S'Unspecified'
p6926
sg8
S'Green Tree Frog'
p6927
sg10
(lp6928
I52
aI61
aI171
aI166
asg12
I0
sasS'1800'
p6929
(lp6930
(dp6931
g5
I0
sg6
S'Unspecified'
p6932
sg8
S'Blue Mountains Tree Frog'
p6933
sg10
(lp6934
I31
aI68
aI182
aI192
asg12
I0
sasS'corroboreefrog1886'
p6935
(lp6936
(dp6937
g5
I0
sg6
S'Unspecified'
p6938
sg8
S'Corroboree Frog'
p6939
sg10
(lp6940
I39
aI81
aI170
aI219
asg12
I0
sasS'GGBF649'
p6941
(lp6942
(dp6943
g5
I0
sg6
S'Unspecified'
p6944
sg8
S'Green And Golden Bell Frog'
p6945
sg10
(lp6946
I1
aI1
aI221
aI223
asg12
I1
sasS'greetreefrog1454'
p6947
(lp6948
(dp6949
g5
I0
sg6
S'Unspecified'
p6950
sg8
S'Green Tree Frog'
p6951
sg10
(lp6952
I13
aI5
aI182
aI223
asg12
I0
sasS'GBF176'
p6953
(lp6954
(dp6955
g5
I0
sg6
S'Unspecified'
p6956
sg8
S'Great Barred Frog'
p6957
sg10
(lp6958
I96
aI4
aI221
aI201
asg12
I0
sasS'corroboreefrog1881'
p6959
(lp6960
(dp6961
g5
I0
sg6
S'Unspecified'
p6962
sg8
S'Corroboree Frog'
p6963
sg10
(lp6964
I24
aI74
aI171
aI219
asg12
I0
sasS'VietnameseMossy459'
p6965
(lp6966
(dp6967
g5
I0
sg6
S'Unspecified'
p6968
sg8
S'Vietnamese Mossy Forg'
p6969
sg10
(lp6970
I21
aI26
aI209
aI205
asg12
I0
sasS'GoldenPoisonDartFrog1065'
p6971
(lp6972
(dp6973
g5
I0
sg6
S'Unspecified'
p6974
sg8
S'Golden Poison Dart Frog'
p6975
sg10
(lp6976
I64
aI25
aI194
aI200
asg12
I0
sasS'GBF378'
p6977
(lp6978
(dp6979
g5
I0
sg6
S'Unspecified'
p6980
sg8
S'Great Barred Frog'
p6981
sg10
(lp6982
I52
aI48
aI163
aI171
asg12
I0
sasS'BluePoisonDartFrog1208'
p6983
(lp6984
(dp6985
g5
I0
sg6
S'Unspecified'
p6986
sg8
S'Blue Poison Dart Frog'
p6987
sg10
(lp6988
I48
aI42
aI162
aI164
asg12
I0
sasS'procVietnameseMossy917'
p6989
(lp6990
(dp6991
g5
I0
sg6
S'Unspecified'
p6992
sg8
S'Vietnamese Mossy Forg'
p6993
sg10
(lp6994
I22
aI77
aI172
aI140
asg12
I0
sasS'GGBF726'
p6995
(lp6996
(dp6997
g5
I0
sg6
S'Unspecified'
p6998
sg8
S'Green And Golden Bell Frog'
p6999
sg10
(lp7000
I93
aI20
aI191
aI203
asg12
I0
sasS'GBF372'
p7001
(lp7002
(dp7003
g5
I0
sg6
S'Unspecified'
p7004
sg8
S'Great Barred Frog'
p7005
sg10
(lp7006
I43
aI57
aI180
aI194
asg12
I0
sasS'RedEyed413'
p7007
(lp7008
(dp7009
g5
I0
sg6
S'Unspecified'
p7010
sg8
S'Red Eyed Tree Frog'
p7011
sg10
(lp7012
I17
aI59
aI193
aI210
asg12
I0
sasS'GBF373'
p7013
(lp7014
(dp7015
g5
I0
sg6
S'Unspecified'
p7016
sg8
S'Great Barred Frog'
p7017
sg10
(lp7018
I45
aI60
aI169
aI162
asg12
I0
sasS'1369'
p7019
(lp7020
(dp7021
g5
I0
sg6
S'Unspecified'
p7022
sg8
S'Blue Mountains Tree Frog'
p7023
sg10
(lp7024
I53
aI41
aI170
aI190
asg12
I0
sas.